
build/fw_al1_mb1.elf:     file format elf32-littlearm


Disassembly of section .vectors:

08000000 <__vectors_base__>:
 8000000:	20000400 	.word	0x20000400
 8000004:	08000191 	.word	0x08000191
 8000008:	08003501 	.word	0x08003501
 800000c:	08000193 	.word	0x08000193
 8000010:	08000193 	.word	0x08000193
 8000014:	08000193 	.word	0x08000193
 8000018:	08000193 	.word	0x08000193
 800001c:	08000193 	.word	0x08000193
 8000020:	08000193 	.word	0x08000193
 8000024:	08000193 	.word	0x08000193
 8000028:	08000193 	.word	0x08000193
 800002c:	08000193 	.word	0x08000193
 8000030:	08000193 	.word	0x08000193
 8000034:	08000193 	.word	0x08000193
 8000038:	08000193 	.word	0x08000193
 800003c:	08000193 	.word	0x08000193
 8000040:	08000193 	.word	0x08000193
 8000044:	08000193 	.word	0x08000193
 8000048:	08000193 	.word	0x08000193
 800004c:	08000193 	.word	0x08000193
 8000050:	08000193 	.word	0x08000193
 8000054:	08002331 	.word	0x08002331
 8000058:	08002441 	.word	0x08002441
 800005c:	08002561 	.word	0x08002561
 8000060:	08002ec1 	.word	0x08002ec1
 8000064:	08002e51 	.word	0x08002e51
 8000068:	08002291 	.word	0x08002291
 800006c:	08000193 	.word	0x08000193
 8000070:	08000193 	.word	0x08000193
 8000074:	08000193 	.word	0x08000193
 8000078:	08000193 	.word	0x08000193
 800007c:	08000193 	.word	0x08000193
 8000080:	08000193 	.word	0x08000193
 8000084:	08000193 	.word	0x08000193
 8000088:	08000193 	.word	0x08000193
 800008c:	08000193 	.word	0x08000193
 8000090:	08000193 	.word	0x08000193
 8000094:	08002c11 	.word	0x08002c11
 8000098:	08002cc1 	.word	0x08002cc1
 800009c:	08000193 	.word	0x08000193
 80000a0:	08000193 	.word	0x08000193
 80000a4:	08000193 	.word	0x08000193
 80000a8:	08000193 	.word	0x08000193
 80000ac:	08000193 	.word	0x08000193
 80000b0:	08002a01 	.word	0x08002a01
 80000b4:	08000193 	.word	0x08000193
 80000b8:	08000193 	.word	0x08000193
 80000bc:	08000193 	.word	0x08000193

Disassembly of section .text:

080000c0 <_crt0_entry>:
                .align  2
                .thumb_func
                .global _crt0_entry
_crt0_entry:
                /* Interrupts are globally masked initially.*/
                cpsid   i
 80000c0:	b672      	cpsid	i

#if CRT0_FORCE_MSP_INIT == TRUE
                /* MSP stack pointers initialization.*/
                ldr     r0, =__main_stack_end__
 80000c2:	4824      	ldr	r0, [pc, #144]	@ (8000154 <_crt0_entry+0x94>)
                msr     MSP, r0
 80000c4:	f380 8808 	msr	MSP, r0
#endif

                /* PSP stack pointers initialization.*/
                ldr     r0, =__process_stack_end__
 80000c8:	4823      	ldr	r0, [pc, #140]	@ (8000158 <_crt0_entry+0x98>)
                msr     PSP, r0
 80000ca:	f380 8809 	msr	PSP, r0

                /* CPU mode initialization as configured.*/
                movs    r0, #CRT0_CONTROL_INIT
 80000ce:	2002      	movs	r0, #2
                msr     CONTROL, r0
 80000d0:	f380 8814 	msr	CONTROL, r0
                isb
 80000d4:	f3bf 8f6f 	isb	sy
                str     r0, [r1]
#endif

#if CRT0_INIT_CORE == TRUE
                /* Core initialization.*/
                bl      __cpu_init
 80000d8:	f002 f89a 	bl	8002210 <__cpu_init>
#endif

                /* Early initialization..*/
                bl      __early_init
 80000dc:	f003 f8b8 	bl	8003250 <__early_init>

#if CRT0_INIT_STACKS == TRUE
                ldr     r0, =CRT0_STACKS_FILL_PATTERN
 80000e0:	481e      	ldr	r0, [pc, #120]	@ (800015c <_crt0_entry+0x9c>)
                /* Main Stack initialization. Note, it assumes that the
                   stack size is a multiple of 4 so the linker file must
                   ensure this.*/
                ldr     r1, =__main_stack_base__
 80000e2:	491f      	ldr	r1, [pc, #124]	@ (8000160 <_crt0_entry+0xa0>)
                ldr     r2, =__main_stack_end__
 80000e4:	4a1b      	ldr	r2, [pc, #108]	@ (8000154 <_crt0_entry+0x94>)
.Lmsloop:
                cmp     r1, r2
 80000e6:	4291      	cmp	r1, r2
                bge     .Lendmsloop
 80000e8:	da02      	bge.n	80000f0 <_crt0_entry+0x30>
                str     r0, [r1]
 80000ea:	6008      	str	r0, [r1, #0]
                adds    r1, #4
 80000ec:	3104      	adds	r1, #4
                b       .Lmsloop
 80000ee:	e7fa      	b.n	80000e6 <_crt0_entry+0x26>
.Lendmsloop:
                /* Process Stack initialization. Note, it assumes that the
                   stack size is a multiple of 4 so the linker file must
                   ensure this.*/
                ldr     r1, =__process_stack_base__
 80000f0:	491c      	ldr	r1, [pc, #112]	@ (8000164 <_crt0_entry+0xa4>)
                ldr     r2, =__process_stack_end__
 80000f2:	4a19      	ldr	r2, [pc, #100]	@ (8000158 <_crt0_entry+0x98>)
.Lpsloop:
                cmp     r1, r2
 80000f4:	4291      	cmp	r1, r2
                bge     .Lendpsloop
 80000f6:	da02      	bge.n	80000fe <_crt0_entry+0x3e>
                str     r0, [r1]
 80000f8:	6008      	str	r0, [r1, #0]
                adds    r1, #4
 80000fa:	3104      	adds	r1, #4
                b       .Lpsloop
 80000fc:	e7fa      	b.n	80000f4 <_crt0_entry+0x34>

#if CRT0_INIT_DATA == TRUE
                /* Data initialization. Note, it assumes that the DATA
                   size is a multiple of 4 so the linker file must ensure
                   this.*/
                ldr     r1, =__textdata_base__
 80000fe:	491a      	ldr	r1, [pc, #104]	@ (8000168 <_crt0_entry+0xa8>)
                ldr     r2, =__data_base__
 8000100:	4a1a      	ldr	r2, [pc, #104]	@ (800016c <_crt0_entry+0xac>)
                ldr     r3, =__data_end__
 8000102:	4b1b      	ldr	r3, [pc, #108]	@ (8000170 <_crt0_entry+0xb0>)
.Ldloop:
                cmp     r2, r3
 8000104:	429a      	cmp	r2, r3
                bge     .Lenddloop
 8000106:	da04      	bge.n	8000112 <_crt0_entry+0x52>
                ldr     r0, [r1]
 8000108:	6808      	ldr	r0, [r1, #0]
                str     r0, [r2]
 800010a:	6010      	str	r0, [r2, #0]
                adds    r1, #4
 800010c:	3104      	adds	r1, #4
                adds    r2, #4
 800010e:	3204      	adds	r2, #4
                b       .Ldloop
 8000110:	e7f8      	b.n	8000104 <_crt0_entry+0x44>

#if CRT0_INIT_BSS == TRUE
                /* BSS initialization. Note, it assumes that the DATA
                   size is a multiple of 4 so the linker file must ensure
                   this.*/
                movs    r0, #0
 8000112:	2000      	movs	r0, #0
                ldr     r1, =__bss_base__
 8000114:	4917      	ldr	r1, [pc, #92]	@ (8000174 <_crt0_entry+0xb4>)
                ldr     r2, =__bss_end__
 8000116:	4a18      	ldr	r2, [pc, #96]	@ (8000178 <_crt0_entry+0xb8>)
.Lbloop:
                cmp     r1, r2
 8000118:	4291      	cmp	r1, r2
                bge     .Lendbloop
 800011a:	da02      	bge.n	8000122 <_crt0_entry+0x62>
                str     r0, [r1]
 800011c:	6008      	str	r0, [r1, #0]
                adds    r1, #4
 800011e:	3104      	adds	r1, #4
                b       .Lbloop
 8000120:	e7fa      	b.n	8000118 <_crt0_entry+0x58>
.Lendbloop:
#endif

#if CRT0_INIT_RAM_AREAS == TRUE
                /* RAM areas initialization.*/
                bl      __init_ram_areas
 8000122:	f002 f88d 	bl	8002240 <__init_ram_areas>
#endif

                /* Late initialization..*/
                bl      __late_init
 8000126:	f002 f87b 	bl	8002220 <__late_init>

#if CRT0_CALL_CONSTRUCTORS == TRUE
                /* Constructors invocation.*/
                ldr     r4, =__init_array_base__
 800012a:	4c14      	ldr	r4, [pc, #80]	@ (800017c <_crt0_entry+0xbc>)
                ldr     r5, =__init_array_end__
 800012c:	4d14      	ldr	r5, [pc, #80]	@ (8000180 <_crt0_entry+0xc0>)
.Linitloop:
                cmp     r4, r5
 800012e:	42ac      	cmp	r4, r5
                bge     .Lendinitloop
 8000130:	da03      	bge.n	800013a <_crt0_entry+0x7a>
                ldr     r1, [r4]
 8000132:	6821      	ldr	r1, [r4, #0]
                blx     r1
 8000134:	4788      	blx	r1
                adds    r4, #4
 8000136:	3404      	adds	r4, #4
                b       .Linitloop
 8000138:	e7f9      	b.n	800012e <_crt0_entry+0x6e>
.Lendinitloop:
#endif

                /* Main program invocation, r0 contains the returned value.*/
                bl      main
 800013a:	f003 f9e9 	bl	8003510 <main>

#if CRT0_CALL_DESTRUCTORS == TRUE
                /* Destructors invocation.*/
                ldr     r4, =__fini_array_base__
 800013e:	4c11      	ldr	r4, [pc, #68]	@ (8000184 <_crt0_entry+0xc4>)
                ldr     r5, =__fini_array_end__
 8000140:	4d11      	ldr	r5, [pc, #68]	@ (8000188 <_crt0_entry+0xc8>)
.Lfiniloop:
                cmp     r4, r5
 8000142:	42ac      	cmp	r4, r5
                bge     .Lendfiniloop
 8000144:	da03      	bge.n	800014e <_crt0_entry+0x8e>
                ldr     r1, [r4]
 8000146:	6821      	ldr	r1, [r4, #0]
                blx     r1
 8000148:	4788      	blx	r1
                adds    r4, #4
 800014a:	3404      	adds	r4, #4
                b       .Lfiniloop
 800014c:	e7f9      	b.n	8000142 <_crt0_entry+0x82>
.Lendfiniloop:
#endif

                /* Branching to the defined exit handler.*/
                ldr     r1, =__default_exit
 800014e:	490f      	ldr	r1, [pc, #60]	@ (800018c <_crt0_entry+0xcc>)
                bx      r1
 8000150:	4708      	bx	r1
 8000152:	0000      	.short	0x0000
                ldr     r0, =__main_stack_end__
 8000154:	20000400 	.word	0x20000400
                ldr     r0, =__process_stack_end__
 8000158:	20000800 	.word	0x20000800
                ldr     r0, =CRT0_STACKS_FILL_PATTERN
 800015c:	55555555 	.word	0x55555555
                ldr     r1, =__main_stack_base__
 8000160:	20000000 	.word	0x20000000
                ldr     r1, =__process_stack_base__
 8000164:	20000400 	.word	0x20000400
                ldr     r1, =__textdata_base__
 8000168:	080041a4 	.word	0x080041a4
                ldr     r2, =__data_base__
 800016c:	20000800 	.word	0x20000800
                ldr     r3, =__data_end__
 8000170:	2000080c 	.word	0x2000080c
                ldr     r1, =__bss_base__
 8000174:	20000810 	.word	0x20000810
                ldr     r2, =__bss_end__
 8000178:	20001138 	.word	0x20001138
                ldr     r4, =__init_array_base__
 800017c:	080000c0 	.word	0x080000c0
                ldr     r5, =__init_array_end__
 8000180:	080000c0 	.word	0x080000c0
                ldr     r4, =__fini_array_base__
 8000184:	080000c0 	.word	0x080000c0
                ldr     r5, =__fini_array_end__
 8000188:	080000c0 	.word	0x080000c0
                ldr     r1, =__default_exit
 800018c:	08002231 	.word	0x08002231

08000190 <Reset_Handler>:

        .align      2
        .thumb_func
        .weak       Reset_Handler
Reset_Handler:
         b          _crt0_entry
 8000190:	e796      	b.n	80000c0 <_crt0_entry>

08000192 <BusFault_Handler>:
        .thumb_func
Vector3F8:
        .thumb_func
Vector3FC:
#endif
        bl          _unhandled_exception
 8000192:	f000 f800 	bl	8000196 <_unhandled_exception>

08000196 <_unhandled_exception>:

        .thumb_func
        .weak       _unhandled_exception
_unhandled_exception:
.stay:
        b           .stay
 8000196:	e7fe      	b.n	8000196 <_unhandled_exception>

08000198 <__port_switch>:
 * Performs a context switch between two threads.
 *--------------------------------------------------------------------------*/
                .thumb_func
                .globl  __port_switch
__port_switch:
                push    {r4, r5, r6, r7, lr}
 8000198:	b5f0      	push	{r4, r5, r6, r7, lr}
                mov     r4, r8
 800019a:	4644      	mov	r4, r8
                mov     r5, r9
 800019c:	464d      	mov	r5, r9
                mov     r6, r10
 800019e:	4656      	mov	r6, sl
                mov     r7, r11
 80001a0:	465f      	mov	r7, fp
                push    {r4, r5, r6, r7}
 80001a2:	b4f0      	push	{r4, r5, r6, r7}
                
                mov     r3, sp
 80001a4:	466b      	mov	r3, sp
                str     r3, [r1, #CONTEXT_OFFSET]
 80001a6:	60cb      	str	r3, [r1, #12]
                ldr     r3, [r0, #CONTEXT_OFFSET]
 80001a8:	68c3      	ldr	r3, [r0, #12]
                mov     sp, r3
 80001aa:	469d      	mov	sp, r3
                
                pop     {r4, r5, r6, r7}
 80001ac:	bcf0      	pop	{r4, r5, r6, r7}
                mov     r8, r4
 80001ae:	46a0      	mov	r8, r4
                mov     r9, r5
 80001b0:	46a9      	mov	r9, r5
                mov     r10, r6
 80001b2:	46b2      	mov	sl, r6
                mov     r11, r7
 80001b4:	46bb      	mov	fp, r7
                pop     {r4, r5, r6, r7, pc}
 80001b6:	bdf0      	pop	{r4, r5, r6, r7, pc}

080001b8 <__port_thread_start>:
                bl      __dbg_check_unlock
#endif
#if CH_DBG_STATISTICS
                bl      __stats_stop_measure_crit_thd
#endif
                cpsie   i
 80001b8:	b662      	cpsie	i
                mov     r0, r5
 80001ba:	1c28      	adds	r0, r5, #0
                blx     r4
 80001bc:	47a0      	blx	r4
                movs    r0, #0              /* MSG_OK */
 80001be:	2000      	movs	r0, #0
                bl      chThdExit
 80001c0:	f003 f956 	bl	8003470 <chThdExit>

080001c4 <.zombies>:
.zombies:       b       .zombies
 80001c4:	e7fe      	b.n	80001c4 <.zombies>

080001c6 <__port_switch_from_isr>:
                bl      __stats_start_measure_crit_thd
#endif
#if CH_DBG_SYSTEM_STATE_CHECK
                bl      __dbg_check_lock
#endif
                bl      chSchDoPreemption
 80001c6:	f003 f933 	bl	8003430 <chSchDoPreemption>

080001ca <__port_exit_from_isr>:
#if CH_DBG_STATISTICS
                bl      __stats_stop_measure_crit_thd
#endif
                .globl  __port_exit_from_isr
__port_exit_from_isr:
                ldr     r2, .L2
 80001ca:	4a02      	ldr	r2, [pc, #8]	@ (80001d4 <__port_exit_from_isr+0xa>)
                ldr     r3, .L3
 80001cc:	4b02      	ldr	r3, [pc, #8]	@ (80001d8 <__port_exit_from_isr+0xe>)
                str     r3, [r2, #0]
 80001ce:	6013      	str	r3, [r2, #0]
#if CORTEX_ALTERNATE_SWITCH
                cpsie   i
#endif
.L1:            b       .L1
 80001d0:	e7fe      	b.n	80001d0 <__port_exit_from_isr+0x6>
 80001d2:	46c0      	nop			@ (mov r8, r8)
 80001d4:	e000ed04 	.word	0xe000ed04
 80001d8:	80000000 	.word	0x80000000

080001dc <memset>:
 80001dc:	b5f0      	push	{r4, r5, r6, r7, lr}
 80001de:	0005      	movs	r5, r0
 80001e0:	0783      	lsls	r3, r0, #30
 80001e2:	d049      	beq.n	8000278 <memset+0x9c>
 80001e4:	1e54      	subs	r4, r2, #1
 80001e6:	2a00      	cmp	r2, #0
 80001e8:	d045      	beq.n	8000276 <memset+0x9a>
 80001ea:	0003      	movs	r3, r0
 80001ec:	2603      	movs	r6, #3
 80001ee:	b2ca      	uxtb	r2, r1
 80001f0:	e002      	b.n	80001f8 <memset+0x1c>
 80001f2:	3501      	adds	r5, #1
 80001f4:	3c01      	subs	r4, #1
 80001f6:	d33e      	bcc.n	8000276 <memset+0x9a>
 80001f8:	3301      	adds	r3, #1
 80001fa:	702a      	strb	r2, [r5, #0]
 80001fc:	4233      	tst	r3, r6
 80001fe:	d1f8      	bne.n	80001f2 <memset+0x16>
 8000200:	2c03      	cmp	r4, #3
 8000202:	d930      	bls.n	8000266 <memset+0x8a>
 8000204:	22ff      	movs	r2, #255	@ 0xff
 8000206:	400a      	ands	r2, r1
 8000208:	0215      	lsls	r5, r2, #8
 800020a:	18ad      	adds	r5, r5, r2
 800020c:	042a      	lsls	r2, r5, #16
 800020e:	18ad      	adds	r5, r5, r2
 8000210:	2c0f      	cmp	r4, #15
 8000212:	d934      	bls.n	800027e <memset+0xa2>
 8000214:	0027      	movs	r7, r4
 8000216:	3f10      	subs	r7, #16
 8000218:	093f      	lsrs	r7, r7, #4
 800021a:	013e      	lsls	r6, r7, #4
 800021c:	46b4      	mov	ip, r6
 800021e:	001e      	movs	r6, r3
 8000220:	001a      	movs	r2, r3
 8000222:	3610      	adds	r6, #16
 8000224:	4466      	add	r6, ip
 8000226:	6015      	str	r5, [r2, #0]
 8000228:	6055      	str	r5, [r2, #4]
 800022a:	6095      	str	r5, [r2, #8]
 800022c:	60d5      	str	r5, [r2, #12]
 800022e:	3210      	adds	r2, #16
 8000230:	4296      	cmp	r6, r2
 8000232:	d1f8      	bne.n	8000226 <memset+0x4a>
 8000234:	3701      	adds	r7, #1
 8000236:	013f      	lsls	r7, r7, #4
 8000238:	19db      	adds	r3, r3, r7
 800023a:	270f      	movs	r7, #15
 800023c:	220c      	movs	r2, #12
 800023e:	4027      	ands	r7, r4
 8000240:	4022      	ands	r2, r4
 8000242:	003c      	movs	r4, r7
 8000244:	2a00      	cmp	r2, #0
 8000246:	d00e      	beq.n	8000266 <memset+0x8a>
 8000248:	1f3e      	subs	r6, r7, #4
 800024a:	08b6      	lsrs	r6, r6, #2
 800024c:	00b4      	lsls	r4, r6, #2
 800024e:	46a4      	mov	ip, r4
 8000250:	001a      	movs	r2, r3
 8000252:	1d1c      	adds	r4, r3, #4
 8000254:	4464      	add	r4, ip
 8000256:	c220      	stmia	r2!, {r5}
 8000258:	42a2      	cmp	r2, r4
 800025a:	d1fc      	bne.n	8000256 <memset+0x7a>
 800025c:	2403      	movs	r4, #3
 800025e:	3601      	adds	r6, #1
 8000260:	00b6      	lsls	r6, r6, #2
 8000262:	199b      	adds	r3, r3, r6
 8000264:	403c      	ands	r4, r7
 8000266:	2c00      	cmp	r4, #0
 8000268:	d005      	beq.n	8000276 <memset+0x9a>
 800026a:	b2c9      	uxtb	r1, r1
 800026c:	191c      	adds	r4, r3, r4
 800026e:	7019      	strb	r1, [r3, #0]
 8000270:	3301      	adds	r3, #1
 8000272:	429c      	cmp	r4, r3
 8000274:	d1fb      	bne.n	800026e <memset+0x92>
 8000276:	bdf0      	pop	{r4, r5, r6, r7, pc}
 8000278:	0003      	movs	r3, r0
 800027a:	0014      	movs	r4, r2
 800027c:	e7c0      	b.n	8000200 <memset+0x24>
 800027e:	0027      	movs	r7, r4
 8000280:	e7e2      	b.n	8000248 <memset+0x6c>
 8000282:	46c0      	nop			@ (mov r8, r8)

08000284 <memcpy>:
 8000284:	b5f0      	push	{r4, r5, r6, r7, lr}
 8000286:	0005      	movs	r5, r0
 8000288:	2a0f      	cmp	r2, #15
 800028a:	d931      	bls.n	80002f0 <memcpy+0x6c>
 800028c:	2703      	movs	r7, #3
 800028e:	003e      	movs	r6, r7
 8000290:	430d      	orrs	r5, r1
 8000292:	000c      	movs	r4, r1
 8000294:	0003      	movs	r3, r0
 8000296:	402e      	ands	r6, r5
 8000298:	422f      	tst	r7, r5
 800029a:	d134      	bne.n	8000306 <memcpy+0x82>
 800029c:	0015      	movs	r5, r2
 800029e:	3d10      	subs	r5, #16
 80002a0:	092d      	lsrs	r5, r5, #4
 80002a2:	46ac      	mov	ip, r5
 80002a4:	012f      	lsls	r7, r5, #4
 80002a6:	183f      	adds	r7, r7, r0
 80002a8:	6865      	ldr	r5, [r4, #4]
 80002aa:	605d      	str	r5, [r3, #4]
 80002ac:	68a5      	ldr	r5, [r4, #8]
 80002ae:	609d      	str	r5, [r3, #8]
 80002b0:	68e5      	ldr	r5, [r4, #12]
 80002b2:	60dd      	str	r5, [r3, #12]
 80002b4:	6825      	ldr	r5, [r4, #0]
 80002b6:	3410      	adds	r4, #16
 80002b8:	601d      	str	r5, [r3, #0]
 80002ba:	001d      	movs	r5, r3
 80002bc:	3310      	adds	r3, #16
 80002be:	42bd      	cmp	r5, r7
 80002c0:	d1f2      	bne.n	80002a8 <memcpy+0x24>
 80002c2:	4665      	mov	r5, ip
 80002c4:	230f      	movs	r3, #15
 80002c6:	240c      	movs	r4, #12
 80002c8:	3501      	adds	r5, #1
 80002ca:	012d      	lsls	r5, r5, #4
 80002cc:	1949      	adds	r1, r1, r5
 80002ce:	4013      	ands	r3, r2
 80002d0:	1945      	adds	r5, r0, r5
 80002d2:	4214      	tst	r4, r2
 80002d4:	d01a      	beq.n	800030c <memcpy+0x88>
 80002d6:	3b04      	subs	r3, #4
 80002d8:	089b      	lsrs	r3, r3, #2
 80002da:	3301      	adds	r3, #1
 80002dc:	009b      	lsls	r3, r3, #2
 80002de:	598c      	ldr	r4, [r1, r6]
 80002e0:	51ac      	str	r4, [r5, r6]
 80002e2:	3604      	adds	r6, #4
 80002e4:	429e      	cmp	r6, r3
 80002e6:	d1fa      	bne.n	80002de <memcpy+0x5a>
 80002e8:	2303      	movs	r3, #3
 80002ea:	19ad      	adds	r5, r5, r6
 80002ec:	1989      	adds	r1, r1, r6
 80002ee:	401a      	ands	r2, r3
 80002f0:	1e56      	subs	r6, r2, #1
 80002f2:	2a00      	cmp	r2, #0
 80002f4:	d006      	beq.n	8000304 <memcpy+0x80>
 80002f6:	2300      	movs	r3, #0
 80002f8:	5ccc      	ldrb	r4, [r1, r3]
 80002fa:	001a      	movs	r2, r3
 80002fc:	54ec      	strb	r4, [r5, r3]
 80002fe:	3301      	adds	r3, #1
 8000300:	4296      	cmp	r6, r2
 8000302:	d1f9      	bne.n	80002f8 <memcpy+0x74>
 8000304:	bdf0      	pop	{r4, r5, r6, r7, pc}
 8000306:	0005      	movs	r5, r0
 8000308:	1e56      	subs	r6, r2, #1
 800030a:	e7f4      	b.n	80002f6 <memcpy+0x72>
 800030c:	001a      	movs	r2, r3
 800030e:	e7ef      	b.n	80002f0 <memcpy+0x6c>

08000310 <__udivsi3>:
 8000310:	2200      	movs	r2, #0
 8000312:	0843      	lsrs	r3, r0, #1
 8000314:	428b      	cmp	r3, r1
 8000316:	d374      	bcc.n	8000402 <__udivsi3+0xf2>
 8000318:	0903      	lsrs	r3, r0, #4
 800031a:	428b      	cmp	r3, r1
 800031c:	d35f      	bcc.n	80003de <__udivsi3+0xce>
 800031e:	0a03      	lsrs	r3, r0, #8
 8000320:	428b      	cmp	r3, r1
 8000322:	d344      	bcc.n	80003ae <__udivsi3+0x9e>
 8000324:	0b03      	lsrs	r3, r0, #12
 8000326:	428b      	cmp	r3, r1
 8000328:	d328      	bcc.n	800037c <__udivsi3+0x6c>
 800032a:	0c03      	lsrs	r3, r0, #16
 800032c:	428b      	cmp	r3, r1
 800032e:	d30d      	bcc.n	800034c <__udivsi3+0x3c>
 8000330:	22ff      	movs	r2, #255	@ 0xff
 8000332:	0209      	lsls	r1, r1, #8
 8000334:	ba12      	rev	r2, r2
 8000336:	0c03      	lsrs	r3, r0, #16
 8000338:	428b      	cmp	r3, r1
 800033a:	d302      	bcc.n	8000342 <__udivsi3+0x32>
 800033c:	1212      	asrs	r2, r2, #8
 800033e:	0209      	lsls	r1, r1, #8
 8000340:	d065      	beq.n	800040e <__udivsi3+0xfe>
 8000342:	0b03      	lsrs	r3, r0, #12
 8000344:	428b      	cmp	r3, r1
 8000346:	d319      	bcc.n	800037c <__udivsi3+0x6c>
 8000348:	e000      	b.n	800034c <__udivsi3+0x3c>
 800034a:	0a09      	lsrs	r1, r1, #8
 800034c:	0bc3      	lsrs	r3, r0, #15
 800034e:	428b      	cmp	r3, r1
 8000350:	d301      	bcc.n	8000356 <__udivsi3+0x46>
 8000352:	03cb      	lsls	r3, r1, #15
 8000354:	1ac0      	subs	r0, r0, r3
 8000356:	4152      	adcs	r2, r2
 8000358:	0b83      	lsrs	r3, r0, #14
 800035a:	428b      	cmp	r3, r1
 800035c:	d301      	bcc.n	8000362 <__udivsi3+0x52>
 800035e:	038b      	lsls	r3, r1, #14
 8000360:	1ac0      	subs	r0, r0, r3
 8000362:	4152      	adcs	r2, r2
 8000364:	0b43      	lsrs	r3, r0, #13
 8000366:	428b      	cmp	r3, r1
 8000368:	d301      	bcc.n	800036e <__udivsi3+0x5e>
 800036a:	034b      	lsls	r3, r1, #13
 800036c:	1ac0      	subs	r0, r0, r3
 800036e:	4152      	adcs	r2, r2
 8000370:	0b03      	lsrs	r3, r0, #12
 8000372:	428b      	cmp	r3, r1
 8000374:	d301      	bcc.n	800037a <__udivsi3+0x6a>
 8000376:	030b      	lsls	r3, r1, #12
 8000378:	1ac0      	subs	r0, r0, r3
 800037a:	4152      	adcs	r2, r2
 800037c:	0ac3      	lsrs	r3, r0, #11
 800037e:	428b      	cmp	r3, r1
 8000380:	d301      	bcc.n	8000386 <__udivsi3+0x76>
 8000382:	02cb      	lsls	r3, r1, #11
 8000384:	1ac0      	subs	r0, r0, r3
 8000386:	4152      	adcs	r2, r2
 8000388:	0a83      	lsrs	r3, r0, #10
 800038a:	428b      	cmp	r3, r1
 800038c:	d301      	bcc.n	8000392 <__udivsi3+0x82>
 800038e:	028b      	lsls	r3, r1, #10
 8000390:	1ac0      	subs	r0, r0, r3
 8000392:	4152      	adcs	r2, r2
 8000394:	0a43      	lsrs	r3, r0, #9
 8000396:	428b      	cmp	r3, r1
 8000398:	d301      	bcc.n	800039e <__udivsi3+0x8e>
 800039a:	024b      	lsls	r3, r1, #9
 800039c:	1ac0      	subs	r0, r0, r3
 800039e:	4152      	adcs	r2, r2
 80003a0:	0a03      	lsrs	r3, r0, #8
 80003a2:	428b      	cmp	r3, r1
 80003a4:	d301      	bcc.n	80003aa <__udivsi3+0x9a>
 80003a6:	020b      	lsls	r3, r1, #8
 80003a8:	1ac0      	subs	r0, r0, r3
 80003aa:	4152      	adcs	r2, r2
 80003ac:	d2cd      	bcs.n	800034a <__udivsi3+0x3a>
 80003ae:	09c3      	lsrs	r3, r0, #7
 80003b0:	428b      	cmp	r3, r1
 80003b2:	d301      	bcc.n	80003b8 <__udivsi3+0xa8>
 80003b4:	01cb      	lsls	r3, r1, #7
 80003b6:	1ac0      	subs	r0, r0, r3
 80003b8:	4152      	adcs	r2, r2
 80003ba:	0983      	lsrs	r3, r0, #6
 80003bc:	428b      	cmp	r3, r1
 80003be:	d301      	bcc.n	80003c4 <__udivsi3+0xb4>
 80003c0:	018b      	lsls	r3, r1, #6
 80003c2:	1ac0      	subs	r0, r0, r3
 80003c4:	4152      	adcs	r2, r2
 80003c6:	0943      	lsrs	r3, r0, #5
 80003c8:	428b      	cmp	r3, r1
 80003ca:	d301      	bcc.n	80003d0 <__udivsi3+0xc0>
 80003cc:	014b      	lsls	r3, r1, #5
 80003ce:	1ac0      	subs	r0, r0, r3
 80003d0:	4152      	adcs	r2, r2
 80003d2:	0903      	lsrs	r3, r0, #4
 80003d4:	428b      	cmp	r3, r1
 80003d6:	d301      	bcc.n	80003dc <__udivsi3+0xcc>
 80003d8:	010b      	lsls	r3, r1, #4
 80003da:	1ac0      	subs	r0, r0, r3
 80003dc:	4152      	adcs	r2, r2
 80003de:	08c3      	lsrs	r3, r0, #3
 80003e0:	428b      	cmp	r3, r1
 80003e2:	d301      	bcc.n	80003e8 <__udivsi3+0xd8>
 80003e4:	00cb      	lsls	r3, r1, #3
 80003e6:	1ac0      	subs	r0, r0, r3
 80003e8:	4152      	adcs	r2, r2
 80003ea:	0883      	lsrs	r3, r0, #2
 80003ec:	428b      	cmp	r3, r1
 80003ee:	d301      	bcc.n	80003f4 <__udivsi3+0xe4>
 80003f0:	008b      	lsls	r3, r1, #2
 80003f2:	1ac0      	subs	r0, r0, r3
 80003f4:	4152      	adcs	r2, r2
 80003f6:	0843      	lsrs	r3, r0, #1
 80003f8:	428b      	cmp	r3, r1
 80003fa:	d301      	bcc.n	8000400 <__udivsi3+0xf0>
 80003fc:	004b      	lsls	r3, r1, #1
 80003fe:	1ac0      	subs	r0, r0, r3
 8000400:	4152      	adcs	r2, r2
 8000402:	1a41      	subs	r1, r0, r1
 8000404:	d200      	bcs.n	8000408 <__udivsi3+0xf8>
 8000406:	4601      	mov	r1, r0
 8000408:	4152      	adcs	r2, r2
 800040a:	4610      	mov	r0, r2
 800040c:	4770      	bx	lr
 800040e:	e7ff      	b.n	8000410 <__udivsi3+0x100>
 8000410:	b501      	push	{r0, lr}
 8000412:	2000      	movs	r0, #0
 8000414:	f000 f806 	bl	8000424 <__aeabi_idiv0>
 8000418:	bd02      	pop	{r1, pc}
 800041a:	46c0      	nop			@ (mov r8, r8)

0800041c <__aeabi_uidivmod>:
 800041c:	2900      	cmp	r1, #0
 800041e:	d0f7      	beq.n	8000410 <__udivsi3+0x100>
 8000420:	e776      	b.n	8000310 <__udivsi3>
 8000422:	4770      	bx	lr

08000424 <__aeabi_idiv0>:
 8000424:	4770      	bx	lr
 8000426:	46c0      	nop			@ (mov r8, r8)
	...

08000430 <_ctl.lto_priv.0>:
  switch (operation) {
  case CHN_CTL_NOP:
    osalDbgCheck(arg == NULL);
    break;
  case CHN_CTL_INVALID:
    return HAL_RET_UNKNOWN_CTL;
 8000430:	3901      	subs	r1, #1
 8000432:	424b      	negs	r3, r1
 8000434:	4159      	adcs	r1, r3
 8000436:	2014      	movs	r0, #20
 8000438:	4249      	negs	r1, r1
 800043a:	4008      	ands	r0, r1
 800043c:	3814      	subs	r0, #20
#else
    return HAL_RET_UNKNOWN_CTL;
#endif
  }
  return HAL_RET_SUCCESS;
}
 800043e:	4770      	bx	lr

08000440 <_ctl.lto_priv.1>:
#else
    break;
#endif
  }
  return MSG_OK;
}
 8000440:	2000      	movs	r0, #0
 8000442:	4770      	bx	lr
	...

08000450 <sduRequestsHook>:
 * @retval true         Message handled internally.
 * @retval false        Message not handled.
 */
bool sduRequestsHook(USBDriver *usbp) {

  if ((usbp->setup[0] & USB_RTYPE_TYPE_MASK) == USB_RTYPE_TYPE_CLASS) {
 8000450:	2274      	movs	r2, #116	@ 0x74
 8000452:	5c81      	ldrb	r1, [r0, r2]
 8000454:	3a14      	subs	r2, #20
bool sduRequestsHook(USBDriver *usbp) {
 8000456:	0003      	movs	r3, r0
  if ((usbp->setup[0] & USB_RTYPE_TYPE_MASK) == USB_RTYPE_TYPE_CLASS) {
 8000458:	400a      	ands	r2, r1
    case CDC_SET_CONTROL_LINE_STATE:
      /* Nothing to do, there are no control lines.*/
      usbSetupTransfer(usbp, NULL, 0, NULL);
      return true;
    default:
      return false;
 800045a:	2000      	movs	r0, #0
  if ((usbp->setup[0] & USB_RTYPE_TYPE_MASK) == USB_RTYPE_TYPE_CLASS) {
 800045c:	2a20      	cmp	r2, #32
 800045e:	d000      	beq.n	8000462 <sduRequestsHook+0x12>
    }
  }
  return false;
}
 8000460:	4770      	bx	lr
    switch (usbp->setup[1]) {
 8000462:	3255      	adds	r2, #85	@ 0x55
 8000464:	5c9a      	ldrb	r2, [r3, r2]
 8000466:	2a21      	cmp	r2, #33	@ 0x21
 8000468:	d808      	bhi.n	800047c <sduRequestsHook+0x2c>
 800046a:	2a1f      	cmp	r2, #31
 800046c:	d9f8      	bls.n	8000460 <sduRequestsHook+0x10>
      usbSetupTransfer(usbp, (uint8_t *)&linecoding, sizeof(linecoding), NULL);
 800046e:	4a07      	ldr	r2, [pc, #28]	@ (800048c <sduRequestsHook+0x3c>)
 8000470:	6718      	str	r0, [r3, #112]	@ 0x70
 8000472:	669a      	str	r2, [r3, #104]	@ 0x68
 8000474:	2207      	movs	r2, #7
      return true;
 8000476:	2001      	movs	r0, #1
      usbSetupTransfer(usbp, (uint8_t *)&linecoding, sizeof(linecoding), NULL);
 8000478:	66da      	str	r2, [r3, #108]	@ 0x6c
      return true;
 800047a:	e7f1      	b.n	8000460 <sduRequestsHook+0x10>
    switch (usbp->setup[1]) {
 800047c:	2a22      	cmp	r2, #34	@ 0x22
 800047e:	d1ef      	bne.n	8000460 <sduRequestsHook+0x10>
      usbSetupTransfer(usbp, NULL, 0, NULL);
 8000480:	6698      	str	r0, [r3, #104]	@ 0x68
 8000482:	66d8      	str	r0, [r3, #108]	@ 0x6c
 8000484:	6718      	str	r0, [r3, #112]	@ 0x70
      return true;
 8000486:	2001      	movs	r0, #1
 8000488:	e7ea      	b.n	8000460 <sduRequestsHook+0x10>
 800048a:	46c0      	nop			@ (mov r8, r8)
 800048c:	20000804 	.word	0x20000804

08000490 <sduInterruptTransmitted>:
 */
void sduInterruptTransmitted(USBDriver *usbp, usbep_t ep) {

  (void)usbp;
  (void)ep;
}
 8000490:	4770      	bx	lr
 8000492:	46c0      	nop			@ (mov r8, r8)
	...

080004a0 <set_address>:
 *
 * @param[in] usbp      pointer to the @p USBDriver object
 */
static void set_address(USBDriver *usbp) {

  usbp->address = usbp->setup[2];
 80004a0:	2376      	movs	r3, #118	@ 0x76
 80004a2:	227e      	movs	r2, #126	@ 0x7e
 *
 * @notapi
 */
void usb_lld_set_address(USBDriver *usbp) {

  usbp->usb->DADDR = (uint32_t)(usbp->address) | USB_DADDR_EF;
 80004a4:	2180      	movs	r1, #128	@ 0x80
 80004a6:	5cc3      	ldrb	r3, [r0, r3]
static void set_address(USBDriver *usbp) {
 80004a8:	b510      	push	{r4, lr}
  usbp->address = usbp->setup[2];
 80004aa:	5483      	strb	r3, [r0, r2]
  usb_lld_set_address(usbp);
 80004ac:	3206      	adds	r2, #6
 80004ae:	5882      	ldr	r2, [r0, r2]
 80004b0:	430b      	orrs	r3, r1
 80004b2:	64d3      	str	r3, [r2, #76]	@ 0x4c
  _usb_isr_invoke_event_cb(usbp, USB_EVENT_ADDRESS);
 80004b4:	6843      	ldr	r3, [r0, #4]
static void set_address(USBDriver *usbp) {
 80004b6:	0004      	movs	r4, r0
  _usb_isr_invoke_event_cb(usbp, USB_EVENT_ADDRESS);
 80004b8:	681b      	ldr	r3, [r3, #0]
 80004ba:	2b00      	cmp	r3, #0
 80004bc:	d001      	beq.n	80004c2 <set_address+0x22>
 80004be:	397f      	subs	r1, #127	@ 0x7f
 80004c0:	4798      	blx	r3
  usbp->state = USB_SELECTED;
 80004c2:	2303      	movs	r3, #3
 80004c4:	7023      	strb	r3, [r4, #0]
}
 80004c6:	bd10      	pop	{r4, pc}
	...

080004d0 <usbStartReceiveI>:
 *                      the packet size because the excess is discarded.
 *
 * @iclass
 */
void usbStartReceiveI(USBDriver *usbp, usbep_t ep,
                      uint8_t *buf, size_t n) {
 80004d0:	b570      	push	{r4, r5, r6, lr}
 80004d2:	0005      	movs	r5, r0
  osalDbgCheckClassI();
  osalDbgCheck((usbp != NULL) && (ep <= (usbep_t)USB_MAX_ENDPOINTS));
  osalDbgAssert(!usbGetReceiveStatusI(usbp, ep), "already receiving");

  /* Marking the endpoint as active.*/
  usbp->receiving |= (uint16_t)((unsigned)1U << (unsigned)ep);
 80004d4:	2001      	movs	r0, #1
 80004d6:	4088      	lsls	r0, r1
                      uint8_t *buf, size_t n) {
 80004d8:	000c      	movs	r4, r1
  usbp->receiving |= (uint16_t)((unsigned)1U << (unsigned)ep);
 80004da:	8969      	ldrh	r1, [r5, #10]
 80004dc:	4301      	orrs	r1, r0
 80004de:	8169      	strh	r1, [r5, #10]

  /* Setting up the transfer.*/
  /*lint -save -e661 [18.1] pclint is confused by the check on ep.*/
  osp = usbp->epc[ep]->out_state;
 80004e0:	1ca1      	adds	r1, r4, #2
 80004e2:	0089      	lsls	r1, r1, #2
 80004e4:	1869      	adds	r1, r5, r1
 80004e6:	6849      	ldr	r1, [r1, #4]
void usb_lld_start_out(USBDriver *usbp, usbep_t ep) {
  USBOutEndpointState *osp = usbp->epc[ep]->out_state;

  /* Transfer initialization.*/
  if (osp->rxsize == 0U)        /* Special case for zero sized packets.*/
    osp->rxpkts = 1U;
 80004e8:	2001      	movs	r0, #1
 80004ea:	698e      	ldr	r6, [r1, #24]
  /*lint -restore*/
  osp->rxbuf  = buf;
 80004ec:	60b2      	str	r2, [r6, #8]
  osp->rxsize = n;
  osp->rxcnt  = 0;
 80004ee:	2200      	movs	r2, #0
  osp->rxsize = n;
 80004f0:	6033      	str	r3, [r6, #0]
  osp->rxcnt  = 0;
 80004f2:	6072      	str	r2, [r6, #4]
  if (osp->rxsize == 0U)        /* Special case for zero sized packets.*/
 80004f4:	2b00      	cmp	r3, #0
 80004f6:	d005      	beq.n	8000504 <usbStartReceiveI+0x34>
  else
    osp->rxpkts = (uint16_t)((osp->rxsize + usbp->epc[ep]->out_maxsize - 1U)/
 80004f8:	8a49      	ldrh	r1, [r1, #18]
 80004fa:	3b01      	subs	r3, #1
 80004fc:	1858      	adds	r0, r3, r1
 80004fe:	f7ff ff07 	bl	8000310 <__udivsi3>
 8000502:	b280      	uxth	r0, r0
 8000504:	2384      	movs	r3, #132	@ 0x84
  osp->thread = NULL;
#endif

  /* Starting transfer.*/
  usb_lld_start_out(usbp, ep);
}
 8000506:	58eb      	ldr	r3, [r5, r3]
 8000508:	00a4      	lsls	r4, r4, #2
 800050a:	191b      	adds	r3, r3, r4
                             usbp->epc[ep]->out_maxsize);

  CHEPR_SET_STATRX(usbp, ep, USB_EP_RX_VALID);
 800050c:	681a      	ldr	r2, [r3, #0]
 800050e:	4905      	ldr	r1, [pc, #20]	@ (8000524 <usbStartReceiveI+0x54>)
 8000510:	81b0      	strh	r0, [r6, #12]
 8000512:	400a      	ands	r2, r1
 8000514:	21c0      	movs	r1, #192	@ 0xc0
 8000516:	0189      	lsls	r1, r1, #6
 8000518:	4051      	eors	r1, r2
 800051a:	4a03      	ldr	r2, [pc, #12]	@ (8000528 <usbStartReceiveI+0x58>)
 800051c:	430a      	orrs	r2, r1
 800051e:	601a      	str	r2, [r3, #0]
 8000520:	bd70      	pop	{r4, r5, r6, pc}
 8000522:	46c0      	nop			@ (mov r8, r8)
 8000524:	ffffb78f 	.word	0xffffb78f
 8000528:	00008080 	.word	0x00008080
 800052c:	00000000 	.word	0x00000000

08000530 <sdu_start_receive.isra.0>:
  if ((usbGetDriverStateI(sdup->config->usbp) != USB_ACTIVE) ||
 8000530:	4b0f      	ldr	r3, [pc, #60]	@ (8000570 <sdu_start_receive.isra.0+0x40>)
static bool sdu_start_receive(SerialUSBDriver *sdup) {
 8000532:	b510      	push	{r4, lr}
  if ((usbGetDriverStateI(sdup->config->usbp) != USB_ACTIVE) ||
 8000534:	58c3      	ldr	r3, [r0, r3]
 8000536:	681c      	ldr	r4, [r3, #0]
 8000538:	7822      	ldrb	r2, [r4, #0]
 800053a:	2a04      	cmp	r2, #4
 800053c:	d102      	bne.n	8000544 <sdu_start_receive.isra.0+0x14>
 800053e:	7a02      	ldrb	r2, [r0, #8]
 8000540:	2a02      	cmp	r2, #2
 8000542:	d000      	beq.n	8000546 <sdu_start_receive.isra.0+0x16>
}
 8000544:	bd10      	pop	{r4, pc}
  if (usbGetReceiveStatusI(sdup->config->usbp, sdup->config->bulk_out)) {
 8000546:	7959      	ldrb	r1, [r3, #5]
 8000548:	2301      	movs	r3, #1
 800054a:	408b      	lsls	r3, r1
 800054c:	8962      	ldrh	r2, [r4, #10]
 800054e:	4213      	tst	r3, r2
 8000550:	d1f8      	bne.n	8000544 <sdu_start_receive.isra.0+0x14>
 */
uint8_t *ibqGetEmptyBufferI(input_buffers_queue_t *ibqp) {

  osalDbgCheckClassI();

  if (ibqIsFullI(ibqp)) {
 8000552:	69c2      	ldr	r2, [r0, #28]
 8000554:	6a03      	ldr	r3, [r0, #32]
 8000556:	429a      	cmp	r2, r3
 8000558:	d006      	beq.n	8000568 <sdu_start_receive.isra.0+0x38>
  usbStartReceiveI(sdup->config->usbp, sdup->config->bulk_out,
 800055a:	2380      	movs	r3, #128	@ 0x80
 800055c:	0020      	movs	r0, r4
    return NULL;
  }

  return ibqp->bwrptr + sizeof (size_t);
 800055e:	3204      	adds	r2, #4
 8000560:	005b      	lsls	r3, r3, #1
 8000562:	f7ff ffb5 	bl	80004d0 <usbStartReceiveI>
  return false;
 8000566:	e7ed      	b.n	8000544 <sdu_start_receive.isra.0+0x14>
  if (ibqIsFullI(ibqp)) {
 8000568:	6983      	ldr	r3, [r0, #24]
 800056a:	2b00      	cmp	r3, #0
 800056c:	d0f5      	beq.n	800055a <sdu_start_receive.isra.0+0x2a>
 800056e:	e7e9      	b.n	8000544 <sdu_start_receive.isra.0+0x14>
 8000570:	0000048c 	.word	0x0000048c
	...

08000580 <ibnotify>:
  SerialUSBDriver *sdup = bqGetLinkX(bqp);
 8000580:	6b43      	ldr	r3, [r0, #52]	@ 0x34
  if ((usbGetDriverStateI(sdup->config->usbp) != USB_ACTIVE) ||
 8000582:	4a0f      	ldr	r2, [pc, #60]	@ (80005c0 <ibnotify+0x40>)
static void ibnotify(io_buffers_queue_t *bqp) {
 8000584:	b510      	push	{r4, lr}
  if ((usbGetDriverStateI(sdup->config->usbp) != USB_ACTIVE) ||
 8000586:	589a      	ldr	r2, [r3, r2]
 8000588:	6810      	ldr	r0, [r2, #0]
 800058a:	7801      	ldrb	r1, [r0, #0]
 800058c:	2904      	cmp	r1, #4
 800058e:	d102      	bne.n	8000596 <ibnotify+0x16>
 8000590:	7a19      	ldrb	r1, [r3, #8]
 8000592:	2902      	cmp	r1, #2
 8000594:	d000      	beq.n	8000598 <ibnotify+0x18>
}
 8000596:	bd10      	pop	{r4, pc}
  if (usbGetReceiveStatusI(sdup->config->usbp, sdup->config->bulk_out)) {
 8000598:	7951      	ldrb	r1, [r2, #5]
 800059a:	2201      	movs	r2, #1
 800059c:	408a      	lsls	r2, r1
 800059e:	8944      	ldrh	r4, [r0, #10]
 80005a0:	4222      	tst	r2, r4
 80005a2:	d1f8      	bne.n	8000596 <ibnotify+0x16>
 80005a4:	69da      	ldr	r2, [r3, #28]
 80005a6:	6a1c      	ldr	r4, [r3, #32]
 80005a8:	42a2      	cmp	r2, r4
 80005aa:	d005      	beq.n	80005b8 <ibnotify+0x38>
  usbStartReceiveI(sdup->config->usbp, sdup->config->bulk_out,
 80005ac:	2380      	movs	r3, #128	@ 0x80
  return ibqp->bwrptr + sizeof (size_t);
 80005ae:	3204      	adds	r2, #4
 80005b0:	005b      	lsls	r3, r3, #1
 80005b2:	f7ff ff8d 	bl	80004d0 <usbStartReceiveI>
}
 80005b6:	e7ee      	b.n	8000596 <ibnotify+0x16>
  if (ibqIsFullI(ibqp)) {
 80005b8:	699b      	ldr	r3, [r3, #24]
 80005ba:	2b00      	cmp	r3, #0
 80005bc:	d0f6      	beq.n	80005ac <ibnotify+0x2c>
 80005be:	e7ea      	b.n	8000596 <ibnotify+0x16>
 80005c0:	0000048c 	.word	0x0000048c
	...

080005d0 <nvicEnableVector>:
 */
void nvicEnableVector(uint32_t n, uint32_t prio) {

#if defined(__CORE_CM0_H_GENERIC) || defined(__CORE_CM0PLUS_H_GENERIC) ||   \
    defined(__CORE_CM23_H_GENERIC)
  NVIC->__IPR[_IP_IDX(n)] = (NVIC->__IPR[_IP_IDX(n)] & ~(0xFFU << _BIT_SHIFT(n))) |
 80005d0:	4a0f      	ldr	r2, [pc, #60]	@ (8000610 <nvicEnableVector+0x40>)
void nvicEnableVector(uint32_t n, uint32_t prio) {
 80005d2:	b570      	push	{r4, r5, r6, lr}
 80005d4:	4694      	mov	ip, r2
  NVIC->__IPR[_IP_IDX(n)] = (NVIC->__IPR[_IP_IDX(n)] & ~(0xFFU << _BIT_SHIFT(n))) |
 80005d6:	2203      	movs	r2, #3
 80005d8:	25ff      	movs	r5, #255	@ 0xff
 80005da:	26c0      	movs	r6, #192	@ 0xc0
 80005dc:	4002      	ands	r2, r0
 80005de:	00d2      	lsls	r2, r2, #3
 80005e0:	4095      	lsls	r5, r2
                            (NVIC_PRIORITY_MASK(prio) << _BIT_SHIFT(n));
 80005e2:	0189      	lsls	r1, r1, #6
 80005e4:	4091      	lsls	r1, r2
  NVIC->__IPR[_IP_IDX(n)] = (NVIC->__IPR[_IP_IDX(n)] & ~(0xFFU << _BIT_SHIFT(n))) |
 80005e6:	0883      	lsrs	r3, r0, #2
 80005e8:	009b      	lsls	r3, r3, #2
 80005ea:	4463      	add	r3, ip
 80005ec:	00b6      	lsls	r6, r6, #2
 80005ee:	599c      	ldr	r4, [r3, r6]
#else
  NVIC->__IPR[n] = NVIC_PRIORITY_MASK(prio);
#endif
  NVIC->__ICPR[n >> 5U] = 1U << (n & 0x1FU);
 80005f0:	221f      	movs	r2, #31
  NVIC->__IPR[_IP_IDX(n)] = (NVIC->__IPR[_IP_IDX(n)] & ~(0xFFU << _BIT_SHIFT(n))) |
 80005f2:	43ac      	bics	r4, r5
 80005f4:	430c      	orrs	r4, r1
 80005f6:	519c      	str	r4, [r3, r6]
  NVIC->__ICPR[n >> 5U] = 1U << (n & 0x1FU);
 80005f8:	2301      	movs	r3, #1
 80005fa:	4002      	ands	r2, r0
 80005fc:	4093      	lsls	r3, r2
 80005fe:	22c0      	movs	r2, #192	@ 0xc0
 8000600:	0940      	lsrs	r0, r0, #5
 8000602:	0080      	lsls	r0, r0, #2
 8000604:	4460      	add	r0, ip
 8000606:	0052      	lsls	r2, r2, #1
 8000608:	5083      	str	r3, [r0, r2]
  NVIC->__ISER[n >> 5U] = 1U << (n & 0x1FU);
 800060a:	6003      	str	r3, [r0, #0]
#if defined(__ARM_FEATURE_CMSE) && (__ARM_FEATURE_CMSE == 3)
  /* If the IRQ is enabled from secure mode then it is marked as secure
     interrupt in ITNS.*/
  NVIC->__ITNS[n >> 5U] &= ~(1U << (n & 0x1FU));
#endif
}
 800060c:	bd70      	pop	{r4, r5, r6, pc}
 800060e:	46c0      	nop			@ (mov r8, r8)
 8000610:	e000e100 	.word	0xe000e100
	...

08000620 <notify2>:

#if STM32_SERIAL_USE_USART2 || defined(__DOXYGEN__)
static void notify2(io_queue_t *qp) {

  (void)qp;
  USART2->CR1 |= USART_CR1_TXEIE | USART_CR1_TCIE;
 8000620:	21c0      	movs	r1, #192	@ 0xc0
 8000622:	4a02      	ldr	r2, [pc, #8]	@ (800062c <notify2+0xc>)
 8000624:	6813      	ldr	r3, [r2, #0]
 8000626:	430b      	orrs	r3, r1
 8000628:	6013      	str	r3, [r2, #0]
}
 800062a:	4770      	bx	lr
 800062c:	40004400 	.word	0x40004400

08000630 <usb_lld_init_endpoint>:
void usb_lld_init_endpoint(USBDriver *usbp, usbep_t ep) {
 8000630:	b5f0      	push	{r4, r5, r6, r7, lr}
  switch (epcp->ep_mode & USB_EP_MODE_TYPE) {
 8000632:	2203      	movs	r2, #3
void usb_lld_init_endpoint(USBDriver *usbp, usbep_t ep) {
 8000634:	46c6      	mov	lr, r8
  const USBEndpointConfig *epcp = usbp->epc[ep];
 8000636:	1c8b      	adds	r3, r1, #2
 8000638:	009b      	lsls	r3, r3, #2
 800063a:	18c3      	adds	r3, r0, r3
 800063c:	685c      	ldr	r4, [r3, #4]
void usb_lld_init_endpoint(USBDriver *usbp, usbep_t ep) {
 800063e:	b500      	push	{lr}
  switch (epcp->ep_mode & USB_EP_MODE_TYPE) {
 8000640:	6823      	ldr	r3, [r4, #0]
 8000642:	4013      	ands	r3, r2
 8000644:	2b03      	cmp	r3, #3
 8000646:	d14a      	bne.n	80006de <usb_lld_init_endpoint+0xae>
 8000648:	23c0      	movs	r3, #192	@ 0xc0
 800064a:	00db      	lsls	r3, r3, #3
  dp = USB_GET_DESCRIPTOR(ep);
 800064c:	4a26      	ldr	r2, [pc, #152]	@ (80006e8 <usb_lld_init_endpoint+0xb8>)
 800064e:	00cd      	lsls	r5, r1, #3
 8000650:	4694      	mov	ip, r2
  if (epcp->in_state != NULL) {
 8000652:	6962      	ldr	r2, [r4, #20]
  dp = USB_GET_DESCRIPTOR(ep);
 8000654:	4465      	add	r5, ip
 8000656:	46a8      	mov	r8, r5
  if (epcp->in_state != NULL) {
 8000658:	2a00      	cmp	r2, #0
 800065a:	d00b      	beq.n	8000674 <usb_lld_init_endpoint+0x44>
  next = usbp->pmnext;
 800065c:	2788      	movs	r7, #136	@ 0x88
  usbp->pmnext += (size + 3U) & ~3U;
 800065e:	2503      	movs	r5, #3
    dp->TXBD0 = usb_pm_alloc(usbp, epcp->in_maxsize);
 8000660:	8a22      	ldrh	r2, [r4, #16]
  next = usbp->pmnext;
 8000662:	59c6      	ldr	r6, [r0, r7]
  usbp->pmnext += (size + 3U) & ~3U;
 8000664:	3203      	adds	r2, #3
 8000666:	43aa      	bics	r2, r5
 8000668:	1992      	adds	r2, r2, r6
 800066a:	51c2      	str	r2, [r0, r7]
    dp->TXBD0 = usb_pm_alloc(usbp, epcp->in_maxsize);
 800066c:	4642      	mov	r2, r8
 800066e:	6016      	str	r6, [r2, #0]
    chepr |= USB_EP_TX_NAK;
 8000670:	2220      	movs	r2, #32
 8000672:	4313      	orrs	r3, r2
  if (epcp->out_state != NULL) {
 8000674:	69a2      	ldr	r2, [r4, #24]
 8000676:	2a00      	cmp	r2, #0
 8000678:	d015      	beq.n	80006a6 <usb_lld_init_endpoint+0x76>
    if (epcp->out_maxsize > 62U) {
 800067a:	8a64      	ldrh	r4, [r4, #18]
      nblocks = (((((uint32_t)epcp->out_maxsize - 1U) | 0x1FU) / 32U) << 26) |
 800067c:	1e62      	subs	r2, r4, #1
    if (epcp->out_maxsize > 62U) {
 800067e:	2c3e      	cmp	r4, #62	@ 0x3e
 8000680:	d827      	bhi.n	80006d2 <usb_lld_init_endpoint+0xa2>
      nblocks = (((((uint32_t)epcp->out_maxsize - 1U) | 1U) + 1U) / 2U) << 26;
 8000682:	2601      	movs	r6, #1
 8000684:	4332      	orrs	r2, r6
 8000686:	3201      	adds	r2, #1
 8000688:	0852      	lsrs	r2, r2, #1
 800068a:	0692      	lsls	r2, r2, #26
  next = usbp->pmnext;
 800068c:	2788      	movs	r7, #136	@ 0x88
  usbp->pmnext += (size + 3U) & ~3U;
 800068e:	2503      	movs	r5, #3
  next = usbp->pmnext;
 8000690:	59c6      	ldr	r6, [r0, r7]
  usbp->pmnext += (size + 3U) & ~3U;
 8000692:	3403      	adds	r4, #3
 8000694:	43ac      	bics	r4, r5
 8000696:	19a4      	adds	r4, r4, r6
 8000698:	51c4      	str	r4, [r0, r7]
    dp->RXBD0 = nblocks | usb_pm_alloc(usbp, epcp->out_maxsize);
 800069a:	4644      	mov	r4, r8
 800069c:	4332      	orrs	r2, r6
 800069e:	6062      	str	r2, [r4, #4]
    chepr |= USB_EP_RX_NAK;
 80006a0:	2280      	movs	r2, #128	@ 0x80
 80006a2:	0192      	lsls	r2, r2, #6
 80006a4:	4313      	orrs	r3, r2
  if (usbp->usb->CHEPR[ep] & USB_EP_DTOG_RX) {
 80006a6:	2284      	movs	r2, #132	@ 0x84
 80006a8:	5882      	ldr	r2, [r0, r2]
 80006aa:	2080      	movs	r0, #128	@ 0x80
 80006ac:	008c      	lsls	r4, r1, #2
 80006ae:	1912      	adds	r2, r2, r4
 80006b0:	6814      	ldr	r4, [r2, #0]
 80006b2:	01c0      	lsls	r0, r0, #7
 80006b4:	4204      	tst	r4, r0
 80006b6:	d000      	beq.n	80006ba <usb_lld_init_endpoint+0x8a>
    chepr |= USB_EP_DTOG_RX;
 80006b8:	4303      	orrs	r3, r0
  if (usbp->usb->CHEPR[ep] & USB_EP_DTOG_TX) {
 80006ba:	2040      	movs	r0, #64	@ 0x40
 80006bc:	6814      	ldr	r4, [r2, #0]
 80006be:	4220      	tst	r0, r4
 80006c0:	d000      	beq.n	80006c4 <usb_lld_init_endpoint+0x94>
    chepr |= USB_EP_DTOG_TX;
 80006c2:	4303      	orrs	r3, r0
  usbp->usb->CHEPR[ep] = usbp->usb->CHEPR[ep];
 80006c4:	6810      	ldr	r0, [r2, #0]
  usbp->usb->CHEPR[ep] = chepr | ep;
 80006c6:	4319      	orrs	r1, r3
  usbp->usb->CHEPR[ep] = usbp->usb->CHEPR[ep];
 80006c8:	6010      	str	r0, [r2, #0]
  usbp->usb->CHEPR[ep] = chepr | ep;
 80006ca:	6011      	str	r1, [r2, #0]
}
 80006cc:	bc80      	pop	{r7}
 80006ce:	46b8      	mov	r8, r7
 80006d0:	bdf0      	pop	{r4, r5, r6, r7, pc}
      nblocks = (((((uint32_t)epcp->out_maxsize - 1U) | 0x1FU) / 32U) << 26) |
 80006d2:	0952      	lsrs	r2, r2, #5
 80006d4:	0696      	lsls	r6, r2, #26
 80006d6:	2280      	movs	r2, #128	@ 0x80
 80006d8:	0612      	lsls	r2, r2, #24
 80006da:	4332      	orrs	r2, r6
 80006dc:	e7d6      	b.n	800068c <usb_lld_init_endpoint+0x5c>
  switch (epcp->ep_mode & USB_EP_MODE_TYPE) {
 80006de:	425a      	negs	r2, r3
 80006e0:	4153      	adcs	r3, r2
 80006e2:	025b      	lsls	r3, r3, #9
 80006e4:	e7b2      	b.n	800064c <usb_lld_init_endpoint+0x1c>
 80006e6:	46c0      	nop			@ (mov r8, r8)
 80006e8:	40009800 	.word	0x40009800
 80006ec:	00000000 	.word	0x00000000

080006f0 <__idle_thread>:
 */
static void __idle_thread(void *p) {

  (void)p;

  while (true) {
 80006f0:	e7fe      	b.n	80006f0 <__idle_thread>
 80006f2:	46c0      	nop			@ (mov r8, r8)
	...

08000700 <chCoreAllocFromTop>:
 * @return              A pointer to the allocated memory block.
 * @retval NULL         allocation failed, core memory exhausted.
 *
 * @api
 */
void *chCoreAllocFromTop(size_t size, unsigned align, size_t offset) {
 8000700:	b530      	push	{r4, r5, lr}
  \details Disables IRQ interrupts by setting the I-bit in the CPSR.
           Can only be executed in Privileged modes.
 */
__STATIC_FORCEINLINE void __disable_irq(void)
{
  __ASM volatile ("cpsid i" : : : "memory");
 8000702:	b672      	cpsid	i
  p = (uint8_t *)MEM_ALIGN_PREV(ch_memcore.topmem - size, align);
 8000704:	4c07      	ldr	r4, [pc, #28]	@ (8000724 <chCoreAllocFromTop+0x24>)
 8000706:	6865      	ldr	r5, [r4, #4]
 8000708:	1a2b      	subs	r3, r5, r0
 800070a:	4248      	negs	r0, r1
 800070c:	4018      	ands	r0, r3
  if ((prev < ch_memcore.basemem) || (prev > ch_memcore.topmem)) {
 800070e:	6823      	ldr	r3, [r4, #0]
  prev = p - offset;
 8000710:	1a82      	subs	r2, r0, r2
  if ((prev < ch_memcore.basemem) || (prev > ch_memcore.topmem)) {
 8000712:	429a      	cmp	r2, r3
 8000714:	d304      	bcc.n	8000720 <chCoreAllocFromTop+0x20>
 8000716:	4295      	cmp	r5, r2
 8000718:	d302      	bcc.n	8000720 <chCoreAllocFromTop+0x20>
  ch_memcore.topmem = prev;
 800071a:	6062      	str	r2, [r4, #4]
  __ASM volatile ("cpsie i" : : : "memory");
 800071c:	b662      	cpsie	i
  chSysLock();
  p = chCoreAllocFromTopI(size, align, offset);
  chSysUnlock();

  return p;
}
 800071e:	bd30      	pop	{r4, r5, pc}
    return NULL;
 8000720:	2000      	movs	r0, #0
 8000722:	e7fb      	b.n	800071c <chCoreAllocFromTop+0x1c>
 8000724:	20000e6c 	.word	0x20000e6c
	...

08000730 <chCoreAllocAlignedI>:
  p = (uint8_t *)MEM_ALIGN_PREV(ch_memcore.topmem - size, align);
 8000730:	4a07      	ldr	r2, [pc, #28]	@ (8000750 <chCoreAllocAlignedI+0x20>)
 * @return              A pointer to the allocated memory block.
 * @retval NULL         allocation failed, core memory exhausted.
 *
 * @iclass
 */
static inline void *chCoreAllocAlignedI(size_t size, unsigned align) {
 8000732:	b510      	push	{r4, lr}
 8000734:	6854      	ldr	r4, [r2, #4]
 8000736:	1a23      	subs	r3, r4, r0
 8000738:	4248      	negs	r0, r1
 800073a:	4018      	ands	r0, r3
  if ((prev < ch_memcore.basemem) || (prev > ch_memcore.topmem)) {
 800073c:	6813      	ldr	r3, [r2, #0]
 800073e:	4298      	cmp	r0, r3
 8000740:	d303      	bcc.n	800074a <chCoreAllocAlignedI+0x1a>
 8000742:	4284      	cmp	r4, r0
 8000744:	d301      	bcc.n	800074a <chCoreAllocAlignedI+0x1a>
  ch_memcore.topmem = prev;
 8000746:	6050      	str	r0, [r2, #4]

  return chCoreAllocAlignedWithOffsetI(size, align, 0U);
}
 8000748:	bd10      	pop	{r4, pc}
    return NULL;
 800074a:	2000      	movs	r0, #0
  return chCoreAllocAlignedWithOffsetI(size, align, 0U);
 800074c:	e7fc      	b.n	8000748 <chCoreAllocAlignedI+0x18>
 800074e:	46c0      	nop			@ (mov r8, r8)
 8000750:	20000e6c 	.word	0x20000e6c
	...

08000760 <get_descriptor>:
                                           uint8_t dindex,
                                           uint16_t lang) {

  (void)usbp;
  (void)lang;
  switch (dtype) {
 8000760:	2902      	cmp	r1, #2
 8000762:	d00c      	beq.n	800077e <get_descriptor+0x1e>
    return &vcom_configuration_descriptor;
  case USB_DESCRIPTOR_STRING:
    if (dindex < 4)
      return &vcom_strings[dindex];
  }
  return NULL;
 8000764:	2000      	movs	r0, #0
  switch (dtype) {
 8000766:	2903      	cmp	r1, #3
 8000768:	d003      	beq.n	8000772 <get_descriptor+0x12>
 800076a:	2901      	cmp	r1, #1
 800076c:	d100      	bne.n	8000770 <get_descriptor+0x10>
    return &vcom_device_descriptor;
 800076e:	4805      	ldr	r0, [pc, #20]	@ (8000784 <get_descriptor+0x24>)
}
 8000770:	4770      	bx	lr
    if (dindex < 4)
 8000772:	2a03      	cmp	r2, #3
 8000774:	d8fc      	bhi.n	8000770 <get_descriptor+0x10>
      return &vcom_strings[dindex];
 8000776:	4804      	ldr	r0, [pc, #16]	@ (8000788 <get_descriptor+0x28>)
 8000778:	00d2      	lsls	r2, r2, #3
 800077a:	1810      	adds	r0, r2, r0
 800077c:	e7f8      	b.n	8000770 <get_descriptor+0x10>
  switch (dtype) {
 800077e:	4803      	ldr	r0, [pc, #12]	@ (800078c <get_descriptor+0x2c>)
 8000780:	e7f6      	b.n	8000770 <get_descriptor+0x10>
 8000782:	46c0      	nop			@ (mov r8, r8)
 8000784:	08004068 	.word	0x08004068
 8000788:	08004070 	.word	0x08004070
 800078c:	08004060 	.word	0x08004060

08000790 <dma_callback>:
uint8_t led_reset(void);


static void dma_callback(void *p, uint32_t flags) {
    (void)p;
    if (flags & STM32_DMA_ISR_TCIF) {
 8000790:	0789      	lsls	r1, r1, #30
 8000792:	d502      	bpl.n	800079a <dma_callback+0xa>
        dma_ready = true;
 8000794:	2201      	movs	r2, #1
 8000796:	4b01      	ldr	r3, [pc, #4]	@ (800079c <dma_callback+0xc>)
 8000798:	701a      	strb	r2, [r3, #0]
    }
    // Handle errors if flags & STM32_DMA_ISR_TEIF, etc.
}
 800079a:	4770      	bx	lr
 800079c:	20000800 	.word	0x20000800

080007a0 <_pal_lld_setgroupmode.constprop.0>:
 */
void _pal_lld_setgroupmode(ioportid_t port,
                           ioportmask_t mask,
                           iomode_t mode) {

  uint32_t moder   = (mode & PAL_STM32_MODE_MASK) >> 0;
 80007a0:	2303      	movs	r3, #3
 80007a2:	400b      	ands	r3, r1
void _pal_lld_setgroupmode(ioportid_t port,
 80007a4:	b5f0      	push	{r4, r5, r6, r7, lr}
 80007a6:	4657      	mov	r7, sl
  uint32_t moder   = (mode & PAL_STM32_MODE_MASK) >> 0;
 80007a8:	469a      	mov	sl, r3
  uint32_t otyper  = (mode & PAL_STM32_OTYPE_MASK) >> 2;
  uint32_t ospeedr = (mode & PAL_STM32_OSPEED_MASK) >> 3;
  uint32_t pupdr   = (mode & PAL_STM32_PUPDR_MASK) >> 5;
  uint32_t altr    = (mode & PAL_STM32_ALTERNATE_MASK) >> 7;
 80007aa:	09cb      	lsrs	r3, r1, #7
 80007ac:	469c      	mov	ip, r3
  uint32_t bit     = 0;
  while (true) {
    if ((mask & 1) != 0) {
      uint32_t altrmask, m1, m2, m4;

      altrmask = altr << ((bit & 7) * 4);
 80007ae:	2307      	movs	r3, #7
void _pal_lld_setgroupmode(ioportid_t port,
 80007b0:	46de      	mov	lr, fp
 80007b2:	4645      	mov	r5, r8
 80007b4:	464e      	mov	r6, r9
      altrmask = altr << ((bit & 7) * 4);
 80007b6:	469b      	mov	fp, r3
      m1 = 1 << bit;
      m2 = 3 << (bit * 2);
      m4 = 15 << ((bit & 7) * 4);
      port->OTYPER  = (port->OTYPER & ~m1) | otyper;
 80007b8:	23a0      	movs	r3, #160	@ 0xa0
void _pal_lld_setgroupmode(ioportid_t port,
 80007ba:	b5e0      	push	{r5, r6, r7, lr}
  uint32_t bit     = 0;
 80007bc:	2200      	movs	r2, #0
  uint32_t moder   = (mode & PAL_STM32_MODE_MASK) >> 0;
 80007be:	4655      	mov	r5, sl
    if ((mask & 1) != 0) {
 80007c0:	2101      	movs	r1, #1
void _pal_lld_setgroupmode(ioportid_t port,
 80007c2:	b083      	sub	sp, #12
      port->OTYPER  = (port->OTYPER & ~m1) | otyper;
 80007c4:	05db      	lsls	r3, r3, #23
 80007c6:	e00f      	b.n	80007e8 <_pal_lld_setgroupmode.constprop.0+0x48>
        port->MODER   = (port->MODER & ~m2) | moder;
      }
      else {
        /* If going into a non-alternate mode then the mode is switched
           before setting the alternate mode in order to avoid glitches.*/
        port->MODER   = (port->MODER & ~m2) | moder;
 80007c8:	4647      	mov	r7, r8
 80007ca:	681e      	ldr	r6, [r3, #0]
 80007cc:	403e      	ands	r6, r7
 80007ce:	432e      	orrs	r6, r5
 80007d0:	601e      	str	r6, [r3, #0]
        if (bit < 8)
 80007d2:	2a07      	cmp	r2, #7
 80007d4:	d843      	bhi.n	800085e <_pal_lld_setgroupmode.constprop.0+0xbe>
          port->AFRL = (port->AFRL & ~m4) | altrmask;
 80007d6:	6a1e      	ldr	r6, [r3, #32]
 80007d8:	4034      	ands	r4, r6
 80007da:	9e00      	ldr	r6, [sp, #0]
 80007dc:	4334      	orrs	r4, r6
 80007de:	621c      	str	r4, [r3, #32]
        else
          port->AFRH = (port->AFRH & ~m4) | altrmask;
      }
    }
    mask >>= 1;
 80007e0:	0840      	lsrs	r0, r0, #1
    if (!mask)
 80007e2:	d035      	beq.n	8000850 <_pal_lld_setgroupmode.constprop.0+0xb0>
      return;
    otyper <<= 1;
    ospeedr <<= 2;
    pupdr <<= 2;
    moder <<= 2;
 80007e4:	00ad      	lsls	r5, r5, #2
    bit++;
 80007e6:	3201      	adds	r2, #1
    if ((mask & 1) != 0) {
 80007e8:	4201      	tst	r1, r0
 80007ea:	d0f9      	beq.n	80007e0 <_pal_lld_setgroupmode.constprop.0+0x40>
      altrmask = altr << ((bit & 7) * 4);
 80007ec:	465c      	mov	r4, fp
 80007ee:	4667      	mov	r7, ip
 80007f0:	4014      	ands	r4, r2
 80007f2:	00a4      	lsls	r4, r4, #2
 80007f4:	40a7      	lsls	r7, r4
 80007f6:	9700      	str	r7, [sp, #0]
      m1 = 1 << bit;
 80007f8:	000f      	movs	r7, r1
 80007fa:	4097      	lsls	r7, r2
      port->OTYPER  = (port->OTYPER & ~m1) | otyper;
 80007fc:	685e      	ldr	r6, [r3, #4]
 80007fe:	43be      	bics	r6, r7
 8000800:	605e      	str	r6, [r3, #4]
      port->OSPEEDR = (port->OSPEEDR & ~m2) | ospeedr;
 8000802:	689f      	ldr	r7, [r3, #8]
 8000804:	9701      	str	r7, [sp, #4]
      m2 = 3 << (bit * 2);
 8000806:	0057      	lsls	r7, r2, #1
 8000808:	46b8      	mov	r8, r7
 800080a:	2703      	movs	r7, #3
 800080c:	4646      	mov	r6, r8
 800080e:	40b7      	lsls	r7, r6
      port->OSPEEDR = (port->OSPEEDR & ~m2) | ospeedr;
 8000810:	43fe      	mvns	r6, r7
 8000812:	46b0      	mov	r8, r6
 8000814:	003e      	movs	r6, r7
      m2 = 3 << (bit * 2);
 8000816:	46b9      	mov	r9, r7
      port->OSPEEDR = (port->OSPEEDR & ~m2) | ospeedr;
 8000818:	9f01      	ldr	r7, [sp, #4]
 800081a:	43b7      	bics	r7, r6
 800081c:	609f      	str	r7, [r3, #8]
      port->PUPDR   = (port->PUPDR & ~m2) | pupdr;
 800081e:	464f      	mov	r7, r9
 8000820:	68de      	ldr	r6, [r3, #12]
 8000822:	43be      	bics	r6, r7
 8000824:	60de      	str	r6, [r3, #12]
      m4 = 15 << ((bit & 7) * 4);
 8000826:	260f      	movs	r6, #15
 8000828:	40a6      	lsls	r6, r4
          port->AFRL = (port->AFRL & ~m4) | altrmask;
 800082a:	43f4      	mvns	r4, r6
      if ((mode & PAL_STM32_MODE_MASK) == PAL_STM32_MODE_ALTERNATE) {
 800082c:	4656      	mov	r6, sl
 800082e:	2e02      	cmp	r6, #2
 8000830:	d1ca      	bne.n	80007c8 <_pal_lld_setgroupmode.constprop.0+0x28>
        if (bit < 8)
 8000832:	2a07      	cmp	r2, #7
 8000834:	d819      	bhi.n	800086a <_pal_lld_setgroupmode.constprop.0+0xca>
          port->AFRL = (port->AFRL & ~m4) | altrmask;
 8000836:	6a1e      	ldr	r6, [r3, #32]
 8000838:	4034      	ands	r4, r6
 800083a:	9e00      	ldr	r6, [sp, #0]
 800083c:	4334      	orrs	r4, r6
 800083e:	621c      	str	r4, [r3, #32]
        port->MODER   = (port->MODER & ~m2) | moder;
 8000840:	4646      	mov	r6, r8
 8000842:	681c      	ldr	r4, [r3, #0]
    mask >>= 1;
 8000844:	0840      	lsrs	r0, r0, #1
        port->MODER   = (port->MODER & ~m2) | moder;
 8000846:	4034      	ands	r4, r6
 8000848:	432c      	orrs	r4, r5
 800084a:	601c      	str	r4, [r3, #0]
    if (!mask)
 800084c:	2800      	cmp	r0, #0
 800084e:	d1c9      	bne.n	80007e4 <_pal_lld_setgroupmode.constprop.0+0x44>
  }
}
 8000850:	b003      	add	sp, #12
 8000852:	bcf0      	pop	{r4, r5, r6, r7}
 8000854:	46bb      	mov	fp, r7
 8000856:	46b2      	mov	sl, r6
 8000858:	46a9      	mov	r9, r5
 800085a:	46a0      	mov	r8, r4
 800085c:	bdf0      	pop	{r4, r5, r6, r7, pc}
          port->AFRH = (port->AFRH & ~m4) | altrmask;
 800085e:	6a5e      	ldr	r6, [r3, #36]	@ 0x24
 8000860:	4034      	ands	r4, r6
 8000862:	9e00      	ldr	r6, [sp, #0]
 8000864:	4334      	orrs	r4, r6
 8000866:	625c      	str	r4, [r3, #36]	@ 0x24
 8000868:	e7ba      	b.n	80007e0 <_pal_lld_setgroupmode.constprop.0+0x40>
          port->AFRH = (port->AFRH & ~m4) | altrmask;
 800086a:	6a5e      	ldr	r6, [r3, #36]	@ 0x24
 800086c:	4034      	ands	r4, r6
 800086e:	9e00      	ldr	r6, [sp, #0]
 8000870:	4334      	orrs	r4, r6
 8000872:	625c      	str	r4, [r3, #36]	@ 0x24
 8000874:	e7e4      	b.n	8000840 <_pal_lld_setgroupmode.constprop.0+0xa0>
 8000876:	46c0      	nop			@ (mov r8, r8)
	...

08000880 <ee_ws2812b_set_color_rgb.isra.0>:
    pwmStop(PWM_DRIVER);

    return 0;
}

uint8_t ee_ws2812b_set_color_rgb(uint8_t r, uint8_t g, uint8_t b) {
 8000880:	b5f0      	push	{r4, r5, r6, r7, lr}
    for(int i = 0; i < 8; i++){
 8000882:	2400      	movs	r4, #0
        pwm_buf[i] = (g & (1 << i)) ? PWM_HI : PWM_LO;
 8000884:	2701      	movs	r7, #1
 8000886:	2608      	movs	r6, #8
 8000888:	4d0d      	ldr	r5, [pc, #52]	@ (80008c0 <ee_ws2812b_set_color_rgb.isra.0+0x40>)
 800088a:	000b      	movs	r3, r1
 800088c:	4123      	asrs	r3, r4
 800088e:	403b      	ands	r3, r7
 8000890:	425b      	negs	r3, r3
 8000892:	4033      	ands	r3, r6
 8000894:	3306      	adds	r3, #6
 8000896:	702b      	strb	r3, [r5, #0]
        pwm_buf[i + 8] = (r & (1 << i)) ? PWM_HI : PWM_LO;
 8000898:	0003      	movs	r3, r0
 800089a:	4123      	asrs	r3, r4
 800089c:	403b      	ands	r3, r7
 800089e:	425b      	negs	r3, r3
 80008a0:	4033      	ands	r3, r6
 80008a2:	3306      	adds	r3, #6
 80008a4:	722b      	strb	r3, [r5, #8]
        pwm_buf[i + 16] = (b & (1 << i)) ? PWM_HI : PWM_LO;
 80008a6:	0013      	movs	r3, r2
 80008a8:	4123      	asrs	r3, r4
 80008aa:	403b      	ands	r3, r7
 80008ac:	425b      	negs	r3, r3
 80008ae:	4033      	ands	r3, r6
 80008b0:	3306      	adds	r3, #6
    for(int i = 0; i < 8; i++){
 80008b2:	3401      	adds	r4, #1
        pwm_buf[i + 16] = (b & (1 << i)) ? PWM_HI : PWM_LO;
 80008b4:	742b      	strb	r3, [r5, #16]
    for(int i = 0; i < 8; i++){
 80008b6:	3501      	adds	r5, #1
 80008b8:	2c08      	cmp	r4, #8
 80008ba:	d1e6      	bne.n	800088a <ee_ws2812b_set_color_rgb.isra.0+0xa>
    }
    // pwm_buf[24] remains 0

    return 0;
}
 80008bc:	bdf0      	pop	{r4, r5, r6, r7, pc}
 80008be:	46c0      	nop			@ (mov r8, r8)
 80008c0:	20000938 	.word	0x20000938
	...

080008d0 <usb_packet_write_from_buffer.isra.0>:
  stm32_usb_pmabufdesc_t *udp = USB_GET_DESCRIPTOR(ep);
 80008d0:	4b13      	ldr	r3, [pc, #76]	@ (8000920 <usb_packet_write_from_buffer.isra.0+0x50>)
 80008d2:	00c0      	lsls	r0, r0, #3
 80008d4:	469c      	mov	ip, r3
 80008d6:	4460      	add	r0, ip
static void usb_packet_write_from_buffer(USBDriver *usbp,
 80008d8:	b530      	push	{r4, r5, lr}
  uint32_t *pmap = USB_GET_TX_BUFFER(udp);
 80008da:	6804      	ldr	r4, [r0, #0]
  USB_SET_TX_COUNT0(udp, n);
 80008dc:	4d11      	ldr	r5, [pc, #68]	@ (8000924 <usb_packet_write_from_buffer.isra.0+0x54>)
 80008de:	6803      	ldr	r3, [r0, #0]
  uint32_t *pmap = USB_GET_TX_BUFFER(udp);
 80008e0:	0424      	lsls	r4, r4, #16
  USB_SET_TX_COUNT0(udp, n);
 80008e2:	402b      	ands	r3, r5
 80008e4:	0415      	lsls	r5, r2, #16
 80008e6:	432b      	orrs	r3, r5
  uint32_t *pmap = USB_GET_TX_BUFFER(udp);
 80008e8:	0c24      	lsrs	r4, r4, #16
  USB_SET_TX_COUNT0(udp, n);
 80008ea:	6003      	str	r3, [r0, #0]
  while (i > 0) {
 80008ec:	2a00      	cmp	r2, #0
 80008ee:	d015      	beq.n	800091c <usb_packet_write_from_buffer.isra.0+0x4c>
 80008f0:	3a01      	subs	r2, #1
 80008f2:	0890      	lsrs	r0, r2, #2
 80008f4:	3001      	adds	r0, #1
 80008f6:	0080      	lsls	r0, r0, #2
 80008f8:	1a64      	subs	r4, r4, r1
 80008fa:	1808      	adds	r0, r1, r0
 80008fc:	4464      	add	r4, ip
    w |= (uint32_t)(*buf++) << 24;
 80008fe:	784b      	ldrb	r3, [r1, #1]
 8000900:	780a      	ldrb	r2, [r1, #0]
 8000902:	021b      	lsls	r3, r3, #8
 8000904:	4313      	orrs	r3, r2
 8000906:	788a      	ldrb	r2, [r1, #2]
 8000908:	190d      	adds	r5, r1, r4
 800090a:	0412      	lsls	r2, r2, #16
 800090c:	431a      	orrs	r2, r3
 800090e:	78cb      	ldrb	r3, [r1, #3]
 8000910:	3104      	adds	r1, #4
 8000912:	061b      	lsls	r3, r3, #24
 8000914:	4313      	orrs	r3, r2
    *pmap++ = w;
 8000916:	602b      	str	r3, [r5, #0]
  while (i > 0) {
 8000918:	4288      	cmp	r0, r1
 800091a:	d1f0      	bne.n	80008fe <usb_packet_write_from_buffer.isra.0+0x2e>
}
 800091c:	bd30      	pop	{r4, r5, pc}
 800091e:	46c0      	nop			@ (mov r8, r8)
 8000920:	40009800 	.word	0x40009800
 8000924:	fc00ffff 	.word	0xfc00ffff
	...

08000930 <usbStartTransmitI>:
 * @param[in] n         transaction size
 *
 * @iclass
 */
void usbStartTransmitI(USBDriver *usbp, usbep_t ep,
                       const uint8_t *buf, size_t n) {
 8000930:	b570      	push	{r4, r5, r6, lr}
 8000932:	0005      	movs	r5, r0
 8000934:	000c      	movs	r4, r1
  osalDbgCheckClassI();
  osalDbgCheck((usbp != NULL) && (ep <= (usbep_t)USB_MAX_ENDPOINTS));
  osalDbgAssert(!usbGetTransmitStatusI(usbp, ep), "already transmitting");

  /* Marking the endpoint as active.*/
  usbp->transmitting |= (uint16_t)((unsigned)1U << (unsigned)ep);
 8000936:	2001      	movs	r0, #1
 8000938:	40a0      	lsls	r0, r4
                       const uint8_t *buf, size_t n) {
 800093a:	0011      	movs	r1, r2
  /*lint -save -e661 [18.1] pclint is confused by the check on ep.*/
  isp = usbp->epc[ep]->in_state;
  /*lint -restore*/
  isp->txbuf  = buf;
  isp->txsize = n;
  isp->txcnt  = 0;
 800093c:	2600      	movs	r6, #0
  usbp->transmitting |= (uint16_t)((unsigned)1U << (unsigned)ep);
 800093e:	892a      	ldrh	r2, [r5, #8]
 8000940:	4302      	orrs	r2, r0
  isp = usbp->epc[ep]->in_state;
 8000942:	1ca0      	adds	r0, r4, #2
 8000944:	0080      	lsls	r0, r0, #2
 8000946:	1828      	adds	r0, r5, r0
  usbp->transmitting |= (uint16_t)((unsigned)1U << (unsigned)ep);
 8000948:	812a      	strh	r2, [r5, #8]
  isp = usbp->epc[ep]->in_state;
 800094a:	6842      	ldr	r2, [r0, #4]
 800094c:	6950      	ldr	r0, [r2, #20]
  isp->txbuf  = buf;
 800094e:	6081      	str	r1, [r0, #8]
  isp->txsize = n;
 8000950:	6003      	str	r3, [r0, #0]
  isp->txcnt  = 0;
 8000952:	6046      	str	r6, [r0, #4]
  size_t n;
  USBInEndpointState *isp = usbp->epc[ep]->in_state;

  /* Transfer initialization.*/
  n = isp->txsize;
  if (n > (size_t)usbp->epc[ep]->in_maxsize)
 8000954:	8a12      	ldrh	r2, [r2, #16]
 8000956:	429a      	cmp	r2, r3
 8000958:	d900      	bls.n	800095c <usbStartTransmitI+0x2c>
 800095a:	001a      	movs	r2, r3
    n = (size_t)usbp->epc[ep]->in_maxsize;

  isp->txlast = n;
 800095c:	60c2      	str	r2, [r0, #12]
  usb_packet_write_from_buffer(usbp, ep, isp->txbuf, n);
 800095e:	0020      	movs	r0, r4
 8000960:	f7ff ffb6 	bl	80008d0 <usb_packet_write_from_buffer.isra.0>

  CHEPR_SET_STATTX(usbp, ep, USB_EP_TX_VALID);
 8000964:	2384      	movs	r3, #132	@ 0x84
 8000966:	58ea      	ldr	r2, [r5, r3]
 8000968:	00a4      	lsls	r4, r4, #2
 800096a:	1912      	adds	r2, r2, r4
 800096c:	6813      	ldr	r3, [r2, #0]
 800096e:	4904      	ldr	r1, [pc, #16]	@ (8000980 <usbStartTransmitI+0x50>)
 8000970:	400b      	ands	r3, r1
 8000972:	2130      	movs	r1, #48	@ 0x30
 8000974:	404b      	eors	r3, r1
 8000976:	4903      	ldr	r1, [pc, #12]	@ (8000984 <usbStartTransmitI+0x54>)
 8000978:	430b      	orrs	r3, r1
 800097a:	6013      	str	r3, [r2, #0]
  isp->thread = NULL;
#endif

  /* Starting transfer.*/
  usb_lld_start_in(usbp, ep);
}
 800097c:	bd70      	pop	{r4, r5, r6, pc}
 800097e:	46c0      	nop			@ (mov r8, r8)
 8000980:	ffff87bf 	.word	0xffff87bf
 8000984:	00008080 	.word	0x00008080
	...

08000990 <obnotify>:
  SerialUSBDriver *sdup = bqGetLinkX(bqp);
 8000990:	6b43      	ldr	r3, [r0, #52]	@ 0x34
  if ((usbGetDriverStateI(sdup->config->usbp) != USB_ACTIVE) ||
 8000992:	4a0f      	ldr	r2, [pc, #60]	@ (80009d0 <obnotify+0x40>)
static void obnotify(io_buffers_queue_t *bqp) {
 8000994:	b510      	push	{r4, lr}
  if ((usbGetDriverStateI(sdup->config->usbp) != USB_ACTIVE) ||
 8000996:	589a      	ldr	r2, [r3, r2]
 8000998:	6810      	ldr	r0, [r2, #0]
 800099a:	7801      	ldrb	r1, [r0, #0]
 800099c:	2904      	cmp	r1, #4
 800099e:	d102      	bne.n	80009a6 <obnotify+0x16>
 80009a0:	7a19      	ldrb	r1, [r3, #8]
 80009a2:	2902      	cmp	r1, #2
 80009a4:	d000      	beq.n	80009a8 <obnotify+0x18>
}
 80009a6:	bd10      	pop	{r4, pc}
  if (!usbGetTransmitStatusI(sdup->config->usbp, sdup->config->bulk_in)) {
 80009a8:	7911      	ldrb	r1, [r2, #4]
 80009aa:	2201      	movs	r2, #1
 80009ac:	408a      	lsls	r2, r1
 80009ae:	8904      	ldrh	r4, [r0, #8]
 80009b0:	4222      	tst	r2, r4
 80009b2:	d1f8      	bne.n	80009a6 <obnotify+0x16>
uint8_t *obqGetFullBufferI(output_buffers_queue_t *obqp,
                           size_t *sizep) {

  osalDbgCheckClassI();

  if (obqIsEmptyI(obqp)) {
 80009b4:	6d9a      	ldr	r2, [r3, #88]	@ 0x58
 80009b6:	6d5c      	ldr	r4, [r3, #84]	@ 0x54
 80009b8:	4294      	cmp	r4, r2
 80009ba:	d003      	beq.n	80009c4 <obnotify+0x34>
    *sizep = 0U;
    return NULL;
  }

  /* Buffer size.*/
  *sizep = *((size_t *)(void *)obqp->brdptr);
 80009bc:	ca08      	ldmia	r2!, {r3}
    usbStartTransmitI(sdup->config->usbp, sdup->config->bulk_in, buf, n);
 80009be:	f7ff ffb7 	bl	8000930 <usbStartTransmitI>
 80009c2:	e7f0      	b.n	80009a6 <obnotify+0x16>
  if (obqIsEmptyI(obqp)) {
 80009c4:	6d1b      	ldr	r3, [r3, #80]	@ 0x50
 80009c6:	2b00      	cmp	r3, #0
 80009c8:	d0f8      	beq.n	80009bc <obnotify+0x2c>
    *sizep = 0U;
 80009ca:	2300      	movs	r3, #0
    return NULL;
 80009cc:	2200      	movs	r2, #0
 80009ce:	e7f6      	b.n	80009be <obnotify+0x2e>
 80009d0:	0000048c 	.word	0x0000048c
	...

080009e0 <_usb_ep0setup>:
void _usb_ep0setup(USBDriver *usbp, usbep_t ep) {
  size_t max;

  /* Is the EP0 state machine in the correct state for handling setup
     packets?*/
  if (usbp->ep0state != USB_EP0_STP_WAITING) {
 80009e0:	2364      	movs	r3, #100	@ 0x64
void _usb_ep0setup(USBDriver *usbp, usbep_t ep) {
 80009e2:	b570      	push	{r4, r5, r6, lr}
  if (usbp->ep0state != USB_EP0_STP_WAITING) {
 80009e4:	5cc2      	ldrb	r2, [r0, r3]
void _usb_ep0setup(USBDriver *usbp, usbep_t ep) {
 80009e6:	0004      	movs	r4, r0
  if (usbp->ep0state != USB_EP0_STP_WAITING) {
 80009e8:	2a00      	cmp	r2, #0
 80009ea:	d001      	beq.n	80009f0 <_usb_ep0setup+0x10>
    /* This is unexpected could require handling with a warning event.*/
    /* CHTODO: handling here.*/

    /* Resetting the EP0 state machine and going ahead.*/
    usbp->ep0state = USB_EP0_STP_WAITING;
 80009ec:	2200      	movs	r2, #0
 80009ee:	54c2      	strb	r2, [r0, r3]
  udp = USB_GET_DESCRIPTOR(ep);
 80009f0:	4bc4      	ldr	r3, [pc, #784]	@ (8000d04 <_usb_ep0setup+0x324>)
 80009f2:	00c9      	lsls	r1, r1, #3
 80009f4:	469c      	mov	ip, r3
 80009f6:	4461      	add	r1, ip
  pmap = USB_GET_RX_BUFFER(udp);
 80009f8:	684b      	ldr	r3, [r1, #4]
 80009fa:	041b      	lsls	r3, r3, #16
 80009fc:	0c1b      	lsrs	r3, r3, #16
 80009fe:	4463      	add	r3, ip
  *(uint32_t *)(void *)(buf + 0) = *pmap++;
 8000a00:	681a      	ldr	r2, [r3, #0]
 8000a02:	6762      	str	r2, [r4, #116]	@ 0x74
  *(uint32_t *)(void *)(buf + 4) = *pmap++;
 8000a04:	685b      	ldr	r3, [r3, #4]
 8000a06:	67a3      	str	r3, [r4, #120]	@ 0x78
  usbReadSetup(usbp, ep, usbp->setup);

  /* First verify if the application has an handler installed for this
     request.*/
  /*lint -save -e9007 [13.5] No side effects, it is intentional.*/
  if ((usbp->config->requests_hook_cb == NULL) ||
 8000a08:	6863      	ldr	r3, [r4, #4]
 8000a0a:	689b      	ldr	r3, [r3, #8]
 8000a0c:	2b00      	cmp	r3, #0
 8000a0e:	d023      	beq.n	8000a58 <_usb_ep0setup+0x78>
      !(usbp->config->requests_hook_cb(usbp))) {
 8000a10:	0020      	movs	r0, r4
 8000a12:	4798      	blx	r3
  if ((usbp->config->requests_hook_cb == NULL) ||
 8000a14:	2800      	cmp	r0, #0
 8000a16:	d01f      	beq.n	8000a58 <_usb_ep0setup+0x78>
  /* Transfer preparation. The request handler must have populated
     correctly the fields ep0next, ep0n and ep0endcb using the macro
     usbSetupTransfer().*/
  max = (size_t)get_hword(&usbp->setup[6]);
  /* The transfer size cannot exceed the specified amount.*/
  if (usbp->ep0n > max) {
 8000a18:	6ee1      	ldr	r1, [r4, #108]	@ 0x6c
  max = (size_t)get_hword(&usbp->setup[6]);
 8000a1a:	237a      	movs	r3, #122	@ 0x7a
 8000a1c:	5ce2      	ldrb	r2, [r4, r3]
 8000a1e:	0023      	movs	r3, r4
 8000a20:	337a      	adds	r3, #122	@ 0x7a
 8000a22:	785b      	ldrb	r3, [r3, #1]
 8000a24:	021b      	lsls	r3, r3, #8
 8000a26:	4313      	orrs	r3, r2
  if (usbp->ep0n > max) {
 8000a28:	428b      	cmp	r3, r1
 8000a2a:	d300      	bcc.n	8000a2e <_usb_ep0setup+0x4e>
 8000a2c:	e09c      	b.n	8000b68 <_usb_ep0setup+0x188>
    usbp->ep0n = max;
  }
  if ((usbp->setup[0] & USB_RTYPE_DIR_MASK) == USB_RTYPE_DIR_DEV2HOST) {
 8000a2e:	2274      	movs	r2, #116	@ 0x74
    usbp->ep0n = max;
 8000a30:	66e3      	str	r3, [r4, #108]	@ 0x6c
  if ((usbp->setup[0] & USB_RTYPE_DIR_MASK) == USB_RTYPE_DIR_DEV2HOST) {
 8000a32:	5ca2      	ldrb	r2, [r4, r2]
 8000a34:	b252      	sxtb	r2, r2
 8000a36:	2a00      	cmp	r2, #0
 8000a38:	db5e      	blt.n	8000af8 <_usb_ep0setup+0x118>
#endif
    }
  }
  else {
    /* OUT phase.*/
    if (usbp->ep0n != 0U) {
 8000a3a:	2b00      	cmp	r3, #0
 8000a3c:	d100      	bne.n	8000a40 <_usb_ep0setup+0x60>
 8000a3e:	e087      	b.n	8000b50 <_usb_ep0setup+0x170>
      /* Starts the receive phase.*/
      usbp->ep0state = USB_EP0_OUT_RX;
 8000a40:	2364      	movs	r3, #100	@ 0x64
 8000a42:	2215      	movs	r2, #21
 8000a44:	54e2      	strb	r2, [r4, r3]
  __ASM volatile ("cpsid i" : : : "memory");
 8000a46:	b672      	cpsid	i
      osalSysLockFromISR();
      usbStartReceiveI(usbp, 0, (uint8_t *)usbp->ep0next, usbp->ep0n);
 8000a48:	2100      	movs	r1, #0
 8000a4a:	0020      	movs	r0, r4
 8000a4c:	6ee3      	ldr	r3, [r4, #108]	@ 0x6c
 8000a4e:	6ea2      	ldr	r2, [r4, #104]	@ 0x68
 8000a50:	f7ff fd3e 	bl	80004d0 <usbStartReceiveI>
  __ASM volatile ("cpsie i" : : : "memory");
 8000a54:	b662      	cpsie	i
 * @special
 */
static inline void osalSysUnlockFromISR(void) {

  chSysUnlockFromISR();
}
 8000a56:	e04e      	b.n	8000af6 <_usb_ep0setup+0x116>
    if (((usbp->setup[0] & USB_RTYPE_TYPE_MASK) != USB_RTYPE_TYPE_STD) ||
 8000a58:	2374      	movs	r3, #116	@ 0x74
 8000a5a:	5ce2      	ldrb	r2, [r4, r3]
 8000a5c:	3b14      	subs	r3, #20
 8000a5e:	001d      	movs	r5, r3
 8000a60:	4015      	ands	r5, r2
 8000a62:	4213      	tst	r3, r2
 8000a64:	d12b      	bne.n	8000abe <_usb_ep0setup+0xde>
           ((uint32_t)usbp->setup[1] << 8U))) {
 8000a66:	2375      	movs	r3, #117	@ 0x75
  switch ((((uint32_t)usbp->setup[0] & (USB_RTYPE_RECIPIENT_MASK |
 8000a68:	217f      	movs	r1, #127	@ 0x7f
           ((uint32_t)usbp->setup[1] << 8U))) {
 8000a6a:	5ce3      	ldrb	r3, [r4, r3]
  switch ((((uint32_t)usbp->setup[0] & (USB_RTYPE_RECIPIENT_MASK |
 8000a6c:	4011      	ands	r1, r2
           ((uint32_t)usbp->setup[1] << 8U))) {
 8000a6e:	021b      	lsls	r3, r3, #8
                                        USB_RTYPE_TYPE_MASK)) |
 8000a70:	430b      	orrs	r3, r1
  switch ((((uint32_t)usbp->setup[0] & (USB_RTYPE_RECIPIENT_MASK |
 8000a72:	49a5      	ldr	r1, [pc, #660]	@ (8000d08 <_usb_ep0setup+0x328>)
 8000a74:	428b      	cmp	r3, r1
 8000a76:	d100      	bne.n	8000a7a <_usb_ep0setup+0x9a>
 8000a78:	e124      	b.n	8000cc4 <_usb_ep0setup+0x2e4>
 8000a7a:	d84b      	bhi.n	8000b14 <_usb_ep0setup+0x134>
 8000a7c:	2180      	movs	r1, #128	@ 0x80
 8000a7e:	0049      	lsls	r1, r1, #1
 8000a80:	428b      	cmp	r3, r1
 8000a82:	d100      	bne.n	8000a86 <_usb_ep0setup+0xa6>
 8000a84:	e0a6      	b.n	8000bd4 <_usb_ep0setup+0x1f4>
 8000a86:	d900      	bls.n	8000a8a <_usb_ep0setup+0xaa>
 8000a88:	e072      	b.n	8000b70 <_usb_ep0setup+0x190>
 8000a8a:	2b01      	cmp	r3, #1
 8000a8c:	d100      	bne.n	8000a90 <_usb_ep0setup+0xb0>
 8000a8e:	e104      	b.n	8000c9a <_usb_ep0setup+0x2ba>
 8000a90:	2b02      	cmp	r3, #2
 8000a92:	d100      	bne.n	8000a96 <_usb_ep0setup+0xb6>
 8000a94:	e0aa      	b.n	8000bec <_usb_ep0setup+0x20c>
    usbSetupTransfer(usbp, (uint8_t *)&usbp->status, 2, NULL);
 8000a96:	0022      	movs	r2, r4
 8000a98:	327c      	adds	r2, #124	@ 0x7c
  switch ((((uint32_t)usbp->setup[0] & (USB_RTYPE_RECIPIENT_MASK |
 8000a9a:	2b00      	cmp	r3, #0
 8000a9c:	d10f      	bne.n	8000abe <_usb_ep0setup+0xde>
        usbSetupTransfer(usbp, (uint8_t *)active_status, 2, NULL);
 8000a9e:	2302      	movs	r3, #2
 8000aa0:	66e3      	str	r3, [r4, #108]	@ 0x6c
 8000aa2:	2300      	movs	r3, #0
 8000aa4:	2102      	movs	r1, #2
 8000aa6:	66a2      	str	r2, [r4, #104]	@ 0x68
 8000aa8:	6723      	str	r3, [r4, #112]	@ 0x70
 8000aaa:	e7b6      	b.n	8000a1a <_usb_ep0setup+0x3a>
  switch ((((uint32_t)usbp->setup[0] & (USB_RTYPE_RECIPIENT_MASK |
 8000aac:	2290      	movs	r2, #144	@ 0x90
 8000aae:	0112      	lsls	r2, r2, #4
 8000ab0:	4293      	cmp	r3, r2
 8000ab2:	d100      	bne.n	8000ab6 <_usb_ep0setup+0xd6>
 8000ab4:	e0b2      	b.n	8000c1c <_usb_ep0setup+0x23c>
 8000ab6:	4a95      	ldr	r2, [pc, #596]	@ (8000d0c <_usb_ep0setup+0x32c>)
 8000ab8:	4293      	cmp	r3, r2
 8000aba:	d100      	bne.n	8000abe <_usb_ep0setup+0xde>
 8000abc:	e0ed      	b.n	8000c9a <_usb_ep0setup+0x2ba>
 8000abe:	2384      	movs	r3, #132	@ 0x84
 8000ac0:	58e2      	ldr	r2, [r4, r3]
 */
void usb_lld_stall_in(USBDriver *usbp, usbep_t ep) {

  (void)usbp;

  CHEPR_SET_STATTX(usbp, ep, USB_EP_TX_STALL);
 8000ac2:	6813      	ldr	r3, [r2, #0]
 8000ac4:	4992      	ldr	r1, [pc, #584]	@ (8000d10 <_usb_ep0setup+0x330>)
 8000ac6:	400b      	ands	r3, r1
 8000ac8:	2110      	movs	r1, #16
 8000aca:	404b      	eors	r3, r1
 8000acc:	4991      	ldr	r1, [pc, #580]	@ (8000d14 <_usb_ep0setup+0x334>)
 8000ace:	430b      	orrs	r3, r1
 8000ad0:	6013      	str	r3, [r2, #0]
  CHEPR_SET_STATRX(usbp, ep, USB_EP_RX_STALL);
 8000ad2:	6810      	ldr	r0, [r2, #0]
 8000ad4:	4b90      	ldr	r3, [pc, #576]	@ (8000d18 <_usb_ep0setup+0x338>)
 8000ad6:	4018      	ands	r0, r3
 8000ad8:	2380      	movs	r3, #128	@ 0x80
 8000ada:	015b      	lsls	r3, r3, #5
 8000adc:	4043      	eors	r3, r0
 8000ade:	4319      	orrs	r1, r3
      _usb_isr_invoke_event_cb(usbp, USB_EVENT_STALLED);
 8000ae0:	6863      	ldr	r3, [r4, #4]
 8000ae2:	6011      	str	r1, [r2, #0]
 8000ae4:	681b      	ldr	r3, [r3, #0]
 8000ae6:	2b00      	cmp	r3, #0
 8000ae8:	d002      	beq.n	8000af0 <_usb_ep0setup+0x110>
 8000aea:	2106      	movs	r1, #6
 8000aec:	0020      	movs	r0, r4
 8000aee:	4798      	blx	r3
      usbp->ep0state = USB_EP0_ERROR;
 8000af0:	2364      	movs	r3, #100	@ 0x64
 8000af2:	2206      	movs	r2, #6
 8000af4:	54e2      	strb	r2, [r4, r3]
#else
      usb_lld_end_setup(usbp, ep);
#endif
    }
  }
}
 8000af6:	bd70      	pop	{r4, r5, r6, pc}
    if (usbp->ep0n != 0U) {
 8000af8:	2b00      	cmp	r3, #0
 8000afa:	d01d      	beq.n	8000b38 <_usb_ep0setup+0x158>
      usbp->ep0state = USB_EP0_IN_TX;
 8000afc:	2364      	movs	r3, #100	@ 0x64
 8000afe:	2209      	movs	r2, #9
 8000b00:	54e2      	strb	r2, [r4, r3]
  __ASM volatile ("cpsid i" : : : "memory");
 8000b02:	b672      	cpsid	i
      usbStartTransmitI(usbp, 0, usbp->ep0next, usbp->ep0n);
 8000b04:	2100      	movs	r1, #0
 8000b06:	0020      	movs	r0, r4
 8000b08:	6ee3      	ldr	r3, [r4, #108]	@ 0x6c
 8000b0a:	6ea2      	ldr	r2, [r4, #104]	@ 0x68
 8000b0c:	f7ff ff10 	bl	8000930 <usbStartTransmitI>
  __ASM volatile ("cpsie i" : : : "memory");
 8000b10:	b662      	cpsie	i
 8000b12:	e7f0      	b.n	8000af6 <_usb_ep0setup+0x116>
  switch ((((uint32_t)usbp->setup[0] & (USB_RTYPE_RECIPIENT_MASK |
 8000b14:	2180      	movs	r1, #128	@ 0x80
 8000b16:	0109      	lsls	r1, r1, #4
 8000b18:	428b      	cmp	r3, r1
 8000b1a:	d100      	bne.n	8000b1e <_usb_ep0setup+0x13e>
 8000b1c:	e0ca      	b.n	8000cb4 <_usb_ep0setup+0x2d4>
 8000b1e:	d8c5      	bhi.n	8000aac <_usb_ep0setup+0xcc>
 8000b20:	21a0      	movs	r1, #160	@ 0xa0
 8000b22:	00c9      	lsls	r1, r1, #3
 8000b24:	428b      	cmp	r3, r1
 8000b26:	d137      	bne.n	8000b98 <_usb_ep0setup+0x1b8>
 8000b28:	4b7c      	ldr	r3, [pc, #496]	@ (8000d1c <_usb_ep0setup+0x33c>)
    usbSetupTransfer(usbp, NULL, 0, NULL);
 8000b2a:	2100      	movs	r1, #0
 8000b2c:	6723      	str	r3, [r4, #112]	@ 0x70
 8000b2e:	66a1      	str	r1, [r4, #104]	@ 0x68
 8000b30:	66e1      	str	r1, [r4, #108]	@ 0x6c
  if ((usbp->setup[0] & USB_RTYPE_DIR_MASK) == USB_RTYPE_DIR_DEV2HOST) {
 8000b32:	b252      	sxtb	r2, r2
 8000b34:	2a00      	cmp	r2, #0
 8000b36:	da0b      	bge.n	8000b50 <_usb_ep0setup+0x170>
      usbp->ep0state = USB_EP0_OUT_WAITING_STS;
 8000b38:	2364      	movs	r3, #100	@ 0x64
 8000b3a:	2214      	movs	r2, #20
 8000b3c:	54e2      	strb	r2, [r4, r3]
  __ASM volatile ("cpsid i" : : : "memory");
 8000b3e:	b672      	cpsid	i
      usbStartReceiveI(usbp, 0, NULL, 0);
 8000b40:	2300      	movs	r3, #0
 8000b42:	2200      	movs	r2, #0
 8000b44:	2100      	movs	r1, #0
 8000b46:	0020      	movs	r0, r4
 8000b48:	f7ff fcc2 	bl	80004d0 <usbStartReceiveI>
  __ASM volatile ("cpsie i" : : : "memory");
 8000b4c:	b662      	cpsie	i
 8000b4e:	e7d2      	b.n	8000af6 <_usb_ep0setup+0x116>
      usbp->ep0state = USB_EP0_IN_SENDING_STS;
 8000b50:	2364      	movs	r3, #100	@ 0x64
 8000b52:	220b      	movs	r2, #11
 8000b54:	54e2      	strb	r2, [r4, r3]
  __ASM volatile ("cpsid i" : : : "memory");
 8000b56:	b672      	cpsid	i
      usbStartTransmitI(usbp, 0, NULL, 0);
 8000b58:	2300      	movs	r3, #0
 8000b5a:	2200      	movs	r2, #0
 8000b5c:	2100      	movs	r1, #0
 8000b5e:	0020      	movs	r0, r4
 8000b60:	f7ff fee6 	bl	8000930 <usbStartTransmitI>
  __ASM volatile ("cpsie i" : : : "memory");
 8000b64:	b662      	cpsie	i
 8000b66:	e7c6      	b.n	8000af6 <_usb_ep0setup+0x116>
  if ((usbp->setup[0] & USB_RTYPE_DIR_MASK) == USB_RTYPE_DIR_DEV2HOST) {
 8000b68:	2374      	movs	r3, #116	@ 0x74
 8000b6a:	5ce2      	ldrb	r2, [r4, r3]
 8000b6c:	000b      	movs	r3, r1
 8000b6e:	e761      	b.n	8000a34 <_usb_ep0setup+0x54>
  switch ((((uint32_t)usbp->setup[0] & (USB_RTYPE_RECIPIENT_MASK |
 8000b70:	2181      	movs	r1, #129	@ 0x81
 8000b72:	0049      	lsls	r1, r1, #1
 8000b74:	428b      	cmp	r3, r1
 8000b76:	d06b      	beq.n	8000c50 <_usb_ep0setup+0x270>
 8000b78:	31ff      	adds	r1, #255	@ 0xff
 8000b7a:	31ff      	adds	r1, #255	@ 0xff
 8000b7c:	428b      	cmp	r3, r1
 8000b7e:	d19e      	bne.n	8000abe <_usb_ep0setup+0xde>
    if (usbp->setup[2] == USB_FEATURE_DEVICE_REMOTE_WAKEUP) {
 8000b80:	2376      	movs	r3, #118	@ 0x76
 8000b82:	5ce3      	ldrb	r3, [r4, r3]
 8000b84:	2b01      	cmp	r3, #1
 8000b86:	d000      	beq.n	8000b8a <_usb_ep0setup+0x1aa>
 8000b88:	e799      	b.n	8000abe <_usb_ep0setup+0xde>
      usbp->status |= 2U;
 8000b8a:	217c      	movs	r1, #124	@ 0x7c
 8000b8c:	2002      	movs	r0, #2
 8000b8e:	5a63      	ldrh	r3, [r4, r1]
 8000b90:	4303      	orrs	r3, r0
 8000b92:	5263      	strh	r3, [r4, r1]
  if ((usbp->setup[0] & USB_RTYPE_DIR_MASK) == USB_RTYPE_DIR_DEV2HOST) {
 8000b94:	2300      	movs	r3, #0
 8000b96:	e7c8      	b.n	8000b2a <_usb_ep0setup+0x14a>
  switch ((((uint32_t)usbp->setup[0] & (USB_RTYPE_RECIPIENT_MASK |
 8000b98:	4a61      	ldr	r2, [pc, #388]	@ (8000d20 <_usb_ep0setup+0x340>)
 8000b9a:	4694      	mov	ip, r2
 8000b9c:	4463      	add	r3, ip
 8000b9e:	2b01      	cmp	r3, #1
 8000ba0:	d900      	bls.n	8000ba4 <_usb_ep0setup+0x1c4>
 8000ba2:	e78c      	b.n	8000abe <_usb_ep0setup+0xde>
    dp = usbp->config->get_descriptor_cb(usbp, usbp->setup[3],
 8000ba4:	2378      	movs	r3, #120	@ 0x78
 8000ba6:	5ce2      	ldrb	r2, [r4, r3]
 8000ba8:	0023      	movs	r3, r4
 8000baa:	3378      	adds	r3, #120	@ 0x78
 8000bac:	785b      	ldrb	r3, [r3, #1]
 8000bae:	2177      	movs	r1, #119	@ 0x77
 8000bb0:	021b      	lsls	r3, r3, #8
 8000bb2:	4313      	orrs	r3, r2
 8000bb4:	2276      	movs	r2, #118	@ 0x76
 8000bb6:	6860      	ldr	r0, [r4, #4]
 8000bb8:	5ca2      	ldrb	r2, [r4, r2]
 8000bba:	6846      	ldr	r6, [r0, #4]
 8000bbc:	5c61      	ldrb	r1, [r4, r1]
 8000bbe:	0020      	movs	r0, r4
 8000bc0:	47b0      	blx	r6
    if (dp == NULL) {
 8000bc2:	2800      	cmp	r0, #0
 8000bc4:	d100      	bne.n	8000bc8 <_usb_ep0setup+0x1e8>
 8000bc6:	e77a      	b.n	8000abe <_usb_ep0setup+0xde>
    usbSetupTransfer(usbp, (uint8_t *)dp->ud_string, dp->ud_size, NULL);
 8000bc8:	6843      	ldr	r3, [r0, #4]
 8000bca:	6801      	ldr	r1, [r0, #0]
 8000bcc:	66a3      	str	r3, [r4, #104]	@ 0x68
 8000bce:	66e1      	str	r1, [r4, #108]	@ 0x6c
 8000bd0:	6725      	str	r5, [r4, #112]	@ 0x70
    return true;
 8000bd2:	e722      	b.n	8000a1a <_usb_ep0setup+0x3a>
    if (usbp->setup[2] == USB_FEATURE_DEVICE_REMOTE_WAKEUP) {
 8000bd4:	2376      	movs	r3, #118	@ 0x76
 8000bd6:	5ce3      	ldrb	r3, [r4, r3]
 8000bd8:	2b01      	cmp	r3, #1
 8000bda:	d000      	beq.n	8000bde <_usb_ep0setup+0x1fe>
 8000bdc:	e76f      	b.n	8000abe <_usb_ep0setup+0xde>
      usbp->status &= ~2U;
 8000bde:	217c      	movs	r1, #124	@ 0x7c
 8000be0:	2002      	movs	r0, #2
 8000be2:	5a63      	ldrh	r3, [r4, r1]
 8000be4:	4383      	bics	r3, r0
 8000be6:	5263      	strh	r3, [r4, r1]
  if ((usbp->setup[0] & USB_RTYPE_DIR_MASK) == USB_RTYPE_DIR_DEV2HOST) {
 8000be8:	2300      	movs	r3, #0
 8000bea:	e79e      	b.n	8000b2a <_usb_ep0setup+0x14a>
    if ((usbp->setup[4] & 0x80U) != 0U) {
 8000bec:	2378      	movs	r3, #120	@ 0x78
 8000bee:	5ce1      	ldrb	r1, [r4, r3]
 8000bf0:	330c      	adds	r3, #12
 8000bf2:	58e2      	ldr	r2, [r4, r3]
  switch (usbp->usb->CHEPR[ep] & USB_CHEP_TX_STTX_Msk) {
 8000bf4:	3b75      	subs	r3, #117	@ 0x75
 8000bf6:	400b      	ands	r3, r1
 8000bf8:	b249      	sxtb	r1, r1
 8000bfa:	009b      	lsls	r3, r3, #2
 8000bfc:	2900      	cmp	r1, #0
 8000bfe:	db4e      	blt.n	8000c9e <_usb_ep0setup+0x2be>
  switch (usbp->usb->CHEPR[ep] & USB_CHEP_RX_STRX_Msk) {
 8000c00:	5899      	ldr	r1, [r3, r2]
 8000c02:	23c0      	movs	r3, #192	@ 0xc0
 8000c04:	0008      	movs	r0, r1
 8000c06:	019b      	lsls	r3, r3, #6
 8000c08:	4018      	ands	r0, r3
 8000c0a:	4219      	tst	r1, r3
 8000c0c:	d100      	bne.n	8000c10 <_usb_ep0setup+0x230>
 8000c0e:	e758      	b.n	8000ac2 <_usb_ep0setup+0xe2>
 8000c10:	2380      	movs	r3, #128	@ 0x80
 8000c12:	015b      	lsls	r3, r3, #5
 8000c14:	4298      	cmp	r0, r3
 8000c16:	d04b      	beq.n	8000cb0 <_usb_ep0setup+0x2d0>
 8000c18:	4a42      	ldr	r2, [pc, #264]	@ (8000d24 <_usb_ep0setup+0x344>)
 8000c1a:	e740      	b.n	8000a9e <_usb_ep0setup+0xbe>
      if (usbp->state == USB_ACTIVE) {
 8000c1c:	7823      	ldrb	r3, [r4, #0]
 8000c1e:	2b04      	cmp	r3, #4
 8000c20:	d100      	bne.n	8000c24 <_usb_ep0setup+0x244>
 8000c22:	e085      	b.n	8000d30 <_usb_ep0setup+0x350>
      if (usbp->setup[2] != 0U) {
 8000c24:	2376      	movs	r3, #118	@ 0x76
 8000c26:	5ce3      	ldrb	r3, [r4, r3]
 8000c28:	2b00      	cmp	r3, #0
 8000c2a:	d00a      	beq.n	8000c42 <_usb_ep0setup+0x262>
        usbp->configuration = usbp->setup[2];
 8000c2c:	227f      	movs	r2, #127	@ 0x7f
 8000c2e:	54a3      	strb	r3, [r4, r2]
        usbp->state = USB_ACTIVE;
 8000c30:	2304      	movs	r3, #4
 8000c32:	7023      	strb	r3, [r4, #0]
        _usb_isr_invoke_event_cb(usbp, USB_EVENT_CONFIGURED);
 8000c34:	6863      	ldr	r3, [r4, #4]
 8000c36:	681b      	ldr	r3, [r3, #0]
 8000c38:	2b00      	cmp	r3, #0
 8000c3a:	d002      	beq.n	8000c42 <_usb_ep0setup+0x262>
 8000c3c:	2102      	movs	r1, #2
 8000c3e:	0020      	movs	r0, r4
 8000c40:	4798      	blx	r3
    usbSetupTransfer(usbp, NULL, 0, NULL);
 8000c42:	2300      	movs	r3, #0
 8000c44:	66a3      	str	r3, [r4, #104]	@ 0x68
 8000c46:	66e3      	str	r3, [r4, #108]	@ 0x6c
 8000c48:	6723      	str	r3, [r4, #112]	@ 0x70
  if ((usbp->setup[0] & USB_RTYPE_DIR_MASK) == USB_RTYPE_DIR_DEV2HOST) {
 8000c4a:	3374      	adds	r3, #116	@ 0x74
 8000c4c:	5ce2      	ldrb	r2, [r4, r3]
 8000c4e:	e770      	b.n	8000b32 <_usb_ep0setup+0x152>
    if (usbp->setup[2] != USB_FEATURE_ENDPOINT_HALT) {
 8000c50:	2376      	movs	r3, #118	@ 0x76
 8000c52:	5ce3      	ldrb	r3, [r4, r3]
 8000c54:	2b00      	cmp	r3, #0
 8000c56:	d000      	beq.n	8000c5a <_usb_ep0setup+0x27a>
 8000c58:	e731      	b.n	8000abe <_usb_ep0setup+0xde>
    if ((usbp->setup[4] & 0x0FU) != 0U) {
 8000c5a:	210f      	movs	r1, #15
 8000c5c:	0008      	movs	r0, r1
 8000c5e:	3378      	adds	r3, #120	@ 0x78
 8000c60:	5ce3      	ldrb	r3, [r4, r3]
 8000c62:	4018      	ands	r0, r3
 8000c64:	4219      	tst	r1, r3
 8000c66:	d095      	beq.n	8000b94 <_usb_ep0setup+0x1b4>
      if ((usbp->setup[4] & 0x80U) != 0U) {
 8000c68:	3175      	adds	r1, #117	@ 0x75
 8000c6a:	b25b      	sxtb	r3, r3
 8000c6c:	5861      	ldr	r1, [r4, r1]
 8000c6e:	0080      	lsls	r0, r0, #2
 8000c70:	2b00      	cmp	r3, #0
 8000c72:	da00      	bge.n	8000c76 <_usb_ep0setup+0x296>
 8000c74:	e08f      	b.n	8000d96 <_usb_ep0setup+0x3b6>
 * @param[in] usbp      pointer to the @p USBDriver object
 * @param[in] ep        endpoint number
 *
 * @notapi
 */
void usb_lld_clear_out(USBDriver *usbp, usbep_t ep) {
 8000c76:	180b      	adds	r3, r1, r0

  (void)usbp;

  /* Makes sure to not put to NAK an endpoint that is already
     transferring.*/
  if ((usbp->usb->CHEPR[ep] & USB_CHEP_RX_STRX_Msk) != USB_EP_RX_VALID) {
 8000c78:	20c0      	movs	r0, #192	@ 0xc0
 8000c7a:	6819      	ldr	r1, [r3, #0]
 8000c7c:	0180      	lsls	r0, r0, #6
 8000c7e:	4001      	ands	r1, r0
 8000c80:	4281      	cmp	r1, r0
 8000c82:	d087      	beq.n	8000b94 <_usb_ep0setup+0x1b4>
    CHEPR_SET_STATRX(usbp, ep, USB_EP_RX_NAK);
 8000c84:	6819      	ldr	r1, [r3, #0]
 8000c86:	4824      	ldr	r0, [pc, #144]	@ (8000d18 <_usb_ep0setup+0x338>)
 8000c88:	4001      	ands	r1, r0
 8000c8a:	2080      	movs	r0, #128	@ 0x80
 8000c8c:	0180      	lsls	r0, r0, #6
 8000c8e:	4048      	eors	r0, r1
 8000c90:	4920      	ldr	r1, [pc, #128]	@ (8000d14 <_usb_ep0setup+0x334>)
 8000c92:	4301      	orrs	r1, r0
 8000c94:	6019      	str	r1, [r3, #0]
  if ((usbp->setup[0] & USB_RTYPE_DIR_MASK) == USB_RTYPE_DIR_DEV2HOST) {
 8000c96:	2300      	movs	r3, #0
 8000c98:	e747      	b.n	8000b2a <_usb_ep0setup+0x14a>
  switch ((((uint32_t)usbp->setup[0] & (USB_RTYPE_RECIPIENT_MASK |
 8000c9a:	4a23      	ldr	r2, [pc, #140]	@ (8000d28 <_usb_ep0setup+0x348>)
 8000c9c:	e6ff      	b.n	8000a9e <_usb_ep0setup+0xbe>
  switch (usbp->usb->CHEPR[ep] & USB_CHEP_TX_STTX_Msk) {
 8000c9e:	2130      	movs	r1, #48	@ 0x30
 8000ca0:	0008      	movs	r0, r1
 8000ca2:	589b      	ldr	r3, [r3, r2]
 8000ca4:	4018      	ands	r0, r3
 8000ca6:	4219      	tst	r1, r3
 8000ca8:	d100      	bne.n	8000cac <_usb_ep0setup+0x2cc>
 8000caa:	e70a      	b.n	8000ac2 <_usb_ep0setup+0xe2>
 8000cac:	2810      	cmp	r0, #16
 8000cae:	d1b3      	bne.n	8000c18 <_usb_ep0setup+0x238>
  switch (usbp->usb->CHEPR[ep] & USB_CHEP_RX_STRX_Msk) {
 8000cb0:	4a1e      	ldr	r2, [pc, #120]	@ (8000d2c <_usb_ep0setup+0x34c>)
 8000cb2:	e6f4      	b.n	8000a9e <_usb_ep0setup+0xbe>
    usbSetupTransfer(usbp, &usbp->configuration, 1, NULL);
 8000cb4:	0023      	movs	r3, r4
 8000cb6:	337f      	adds	r3, #127	@ 0x7f
 8000cb8:	66a3      	str	r3, [r4, #104]	@ 0x68
 8000cba:	2301      	movs	r3, #1
 8000cbc:	2101      	movs	r1, #1
 8000cbe:	66e3      	str	r3, [r4, #108]	@ 0x6c
 8000cc0:	6725      	str	r5, [r4, #112]	@ 0x70
    return true;
 8000cc2:	e6aa      	b.n	8000a1a <_usb_ep0setup+0x3a>
    if (usbp->setup[2] != USB_FEATURE_ENDPOINT_HALT) {
 8000cc4:	2376      	movs	r3, #118	@ 0x76
 8000cc6:	5ce3      	ldrb	r3, [r4, r3]
 8000cc8:	2b00      	cmp	r3, #0
 8000cca:	d000      	beq.n	8000cce <_usb_ep0setup+0x2ee>
 8000ccc:	e6f7      	b.n	8000abe <_usb_ep0setup+0xde>
    if ((usbp->setup[4] & 0x0FU) != 0U) {
 8000cce:	210f      	movs	r1, #15
 8000cd0:	0008      	movs	r0, r1
 8000cd2:	3378      	adds	r3, #120	@ 0x78
 8000cd4:	5ce3      	ldrb	r3, [r4, r3]
 8000cd6:	4018      	ands	r0, r3
 8000cd8:	4219      	tst	r1, r3
 8000cda:	d100      	bne.n	8000cde <_usb_ep0setup+0x2fe>
 8000cdc:	e75a      	b.n	8000b94 <_usb_ep0setup+0x1b4>
      if ((usbp->setup[4] & 0x80U) != 0U) {
 8000cde:	3175      	adds	r1, #117	@ 0x75
 8000ce0:	5861      	ldr	r1, [r4, r1]
 8000ce2:	0080      	lsls	r0, r0, #2
 8000ce4:	b25b      	sxtb	r3, r3
 8000ce6:	1809      	adds	r1, r1, r0
 8000ce8:	2b00      	cmp	r3, #0
 8000cea:	db4a      	blt.n	8000d82 <_usb_ep0setup+0x3a2>
  CHEPR_SET_STATRX(usbp, ep, USB_EP_RX_STALL);
 8000cec:	680b      	ldr	r3, [r1, #0]
 8000cee:	480a      	ldr	r0, [pc, #40]	@ (8000d18 <_usb_ep0setup+0x338>)
 8000cf0:	4003      	ands	r3, r0
 8000cf2:	2080      	movs	r0, #128	@ 0x80
 8000cf4:	0140      	lsls	r0, r0, #5
 8000cf6:	4058      	eors	r0, r3
 8000cf8:	4b06      	ldr	r3, [pc, #24]	@ (8000d14 <_usb_ep0setup+0x334>)
 8000cfa:	4303      	orrs	r3, r0
 8000cfc:	600b      	str	r3, [r1, #0]
  if ((usbp->setup[0] & USB_RTYPE_DIR_MASK) == USB_RTYPE_DIR_DEV2HOST) {
 8000cfe:	2300      	movs	r3, #0
 8000d00:	e713      	b.n	8000b2a <_usb_ep0setup+0x14a>
 8000d02:	46c0      	nop			@ (mov r8, r8)
 8000d04:	40009800 	.word	0x40009800
 8000d08:	00000302 	.word	0x00000302
 8000d0c:	00000c02 	.word	0x00000c02
 8000d10:	ffff87bf 	.word	0xffff87bf
 8000d14:	00008080 	.word	0x00008080
 8000d18:	ffffb78f 	.word	0xffffb78f
 8000d1c:	080004a1 	.word	0x080004a1
 8000d20:	fffffa00 	.word	0xfffffa00
 8000d24:	08004118 	.word	0x08004118
 8000d28:	08004120 	.word	0x08004120
 8000d2c:	0800411c 	.word	0x0800411c
  __ASM volatile ("cpsid i" : : : "memory");
 8000d30:	b672      	cpsid	i
  usbp->transmitting &= 1U;
 8000d32:	4a21      	ldr	r2, [pc, #132]	@ (8000db8 <_usb_ep0setup+0x3d8>)
 8000d34:	68a3      	ldr	r3, [r4, #8]
    usbp->usb->CHEPR[i] = 0U;
 8000d36:	2000      	movs	r0, #0
 8000d38:	4013      	ands	r3, r2
 8000d3a:	60a3      	str	r3, [r4, #8]
  usbp->pmnext = 64U;
 8000d3c:	2240      	movs	r2, #64	@ 0x40
 8000d3e:	2388      	movs	r3, #136	@ 0x88
    usbp->epc[i] = NULL;
 8000d40:	6125      	str	r5, [r4, #16]
 8000d42:	6165      	str	r5, [r4, #20]
 8000d44:	61a5      	str	r5, [r4, #24]
 8000d46:	61e5      	str	r5, [r4, #28]
 8000d48:	6225      	str	r5, [r4, #32]
 8000d4a:	6265      	str	r5, [r4, #36]	@ 0x24
 8000d4c:	62a5      	str	r5, [r4, #40]	@ 0x28
 8000d4e:	50e2      	str	r2, [r4, r3]
    usbp->usb->CHEPR[i] = usbp->usb->CHEPR[i];
 8000d50:	3b04      	subs	r3, #4
 8000d52:	58e5      	ldr	r5, [r4, r3]
  for (i = 1U; i <= (unsigned)USB_ENDPOINTS_NUMBER; i++) {
 8000d54:	3a3f      	subs	r2, #63	@ 0x3f
    usbp->usb->CHEPR[i] = usbp->usb->CHEPR[i];
 8000d56:	0093      	lsls	r3, r2, #2
 8000d58:	18eb      	adds	r3, r5, r3
 8000d5a:	6819      	ldr	r1, [r3, #0]
  for (i = 1U; i <= (unsigned)USB_ENDPOINTS_NUMBER; i++) {
 8000d5c:	3201      	adds	r2, #1
    usbp->usb->CHEPR[i] = usbp->usb->CHEPR[i];
 8000d5e:	6019      	str	r1, [r3, #0]
    usbp->usb->CHEPR[i] = 0U;
 8000d60:	6018      	str	r0, [r3, #0]
  for (i = 1U; i <= (unsigned)USB_ENDPOINTS_NUMBER; i++) {
 8000d62:	2a08      	cmp	r2, #8
 8000d64:	d1f7      	bne.n	8000d56 <_usb_ep0setup+0x376>
  __ASM volatile ("cpsie i" : : : "memory");
 8000d66:	b662      	cpsie	i
        usbp->configuration = 0U;
 8000d68:	237f      	movs	r3, #127	@ 0x7f
 8000d6a:	54e0      	strb	r0, [r4, r3]
        usbp->state = USB_SELECTED;
 8000d6c:	3b7c      	subs	r3, #124	@ 0x7c
 8000d6e:	7023      	strb	r3, [r4, #0]
        _usb_isr_invoke_event_cb(usbp, USB_EVENT_UNCONFIGURED);
 8000d70:	6863      	ldr	r3, [r4, #4]
 8000d72:	681b      	ldr	r3, [r3, #0]
 8000d74:	2b00      	cmp	r3, #0
 8000d76:	d100      	bne.n	8000d7a <_usb_ep0setup+0x39a>
 8000d78:	e754      	b.n	8000c24 <_usb_ep0setup+0x244>
 8000d7a:	2103      	movs	r1, #3
 8000d7c:	0020      	movs	r0, r4
 8000d7e:	4798      	blx	r3
 8000d80:	e750      	b.n	8000c24 <_usb_ep0setup+0x244>
  CHEPR_SET_STATTX(usbp, ep, USB_EP_TX_STALL);
 8000d82:	680b      	ldr	r3, [r1, #0]
 8000d84:	480d      	ldr	r0, [pc, #52]	@ (8000dbc <_usb_ep0setup+0x3dc>)
 8000d86:	4003      	ands	r3, r0
 8000d88:	2010      	movs	r0, #16
 8000d8a:	4043      	eors	r3, r0
 8000d8c:	480c      	ldr	r0, [pc, #48]	@ (8000dc0 <_usb_ep0setup+0x3e0>)
 8000d8e:	4303      	orrs	r3, r0
 8000d90:	600b      	str	r3, [r1, #0]
  if ((usbp->setup[0] & USB_RTYPE_DIR_MASK) == USB_RTYPE_DIR_DEV2HOST) {
 8000d92:	2300      	movs	r3, #0
 8000d94:	e6c9      	b.n	8000b2a <_usb_ep0setup+0x14a>
 * @param[in] usbp      pointer to the @p USBDriver object
 * @param[in] ep        endpoint number
 *
 * @notapi
 */
void usb_lld_clear_in(USBDriver *usbp, usbep_t ep) {
 8000d96:	180b      	adds	r3, r1, r0

  (void)usbp;

  /* Makes sure to not put to NAK an endpoint that is already
     transferring.*/
  if ((usbp->usb->CHEPR[ep] & USB_CHEP_TX_STTX_Msk) != USB_EP_TX_VALID) {
 8000d98:	2130      	movs	r1, #48	@ 0x30
 8000d9a:	6818      	ldr	r0, [r3, #0]
 8000d9c:	4001      	ands	r1, r0
 8000d9e:	2930      	cmp	r1, #48	@ 0x30
 8000da0:	d100      	bne.n	8000da4 <_usb_ep0setup+0x3c4>
 8000da2:	e6f7      	b.n	8000b94 <_usb_ep0setup+0x1b4>
    CHEPR_SET_STATTX(usbp, ep, USB_EP_TX_NAK);
 8000da4:	6819      	ldr	r1, [r3, #0]
 8000da6:	4805      	ldr	r0, [pc, #20]	@ (8000dbc <_usb_ep0setup+0x3dc>)
 8000da8:	4001      	ands	r1, r0
 8000daa:	2020      	movs	r0, #32
 8000dac:	4041      	eors	r1, r0
 8000dae:	4804      	ldr	r0, [pc, #16]	@ (8000dc0 <_usb_ep0setup+0x3e0>)
 8000db0:	4301      	orrs	r1, r0
 8000db2:	6019      	str	r1, [r3, #0]
 8000db4:	2300      	movs	r3, #0
 8000db6:	e6b8      	b.n	8000b2a <_usb_ep0setup+0x14a>
 8000db8:	00010001 	.word	0x00010001
 8000dbc:	ffff87bf 	.word	0xffff87bf
 8000dc0:	00008080 	.word	0x00008080
	...

08000dd0 <_usb_ep0in>:
 */
void _usb_ep0in(USBDriver *usbp, usbep_t ep) {
  size_t max;

  (void)ep;
  switch (usbp->ep0state) {
 8000dd0:	2364      	movs	r3, #100	@ 0x64
void _usb_ep0in(USBDriver *usbp, usbep_t ep) {
 8000dd2:	b510      	push	{r4, lr}
  switch (usbp->ep0state) {
 8000dd4:	5cc3      	ldrb	r3, [r0, r3]
void _usb_ep0in(USBDriver *usbp, usbep_t ep) {
 8000dd6:	0004      	movs	r4, r0
  switch (usbp->ep0state) {
 8000dd8:	2b15      	cmp	r3, #21
 8000dda:	d818      	bhi.n	8000e0e <_usb_ep0in+0x3e>
 8000ddc:	4a27      	ldr	r2, [pc, #156]	@ (8000e7c <_usb_ep0in+0xac>)
 8000dde:	009b      	lsls	r3, r3, #2
 8000de0:	58d3      	ldr	r3, [r2, r3]
 8000de2:	469f      	mov	pc, r3
  case USB_EP0_IN_TX:
    max = (size_t)get_hword(&usbp->setup[6]);
 8000de4:	237a      	movs	r3, #122	@ 0x7a
 8000de6:	5ce2      	ldrb	r2, [r4, r3]
 8000de8:	0023      	movs	r3, r4
 8000dea:	337a      	adds	r3, #122	@ 0x7a
 8000dec:	785b      	ldrb	r3, [r3, #1]
    /* If the transmitted size is less than the requested size and it is a
       multiple of the maximum packet size then a zero size packet must be
       transmitted.*/
    if ((usbp->ep0n < max) &&
 8000dee:	6ec0      	ldr	r0, [r0, #108]	@ 0x6c
    max = (size_t)get_hword(&usbp->setup[6]);
 8000df0:	021b      	lsls	r3, r3, #8
 8000df2:	4313      	orrs	r3, r2
    if ((usbp->ep0n < max) &&
 8000df4:	4298      	cmp	r0, r3
 8000df6:	d330      	bcc.n	8000e5a <_usb_ep0in+0x8a>
      return;
    }
    /* Falls through.*/
  case USB_EP0_IN_WAITING_TX0:
    /* Transmit phase over, receiving the zero sized status packet.*/
    usbp->ep0state = USB_EP0_OUT_WAITING_STS;
 8000df8:	2364      	movs	r3, #100	@ 0x64
 8000dfa:	2214      	movs	r2, #20
 8000dfc:	54e2      	strb	r2, [r4, r3]
  __ASM volatile ("cpsid i" : : : "memory");
 8000dfe:	b672      	cpsid	i
#if (USB_EP0_STATUS_STAGE == USB_EP0_STATUS_STAGE_SW)
    osalSysLockFromISR();
    usbStartReceiveI(usbp, 0, NULL, 0);
 8000e00:	2300      	movs	r3, #0
 8000e02:	2200      	movs	r2, #0
 8000e04:	2100      	movs	r1, #0
 8000e06:	0020      	movs	r0, r4
 8000e08:	f7ff fb62 	bl	80004d0 <usbStartReceiveI>
  __ASM volatile ("cpsie i" : : : "memory");
 8000e0c:	b662      	cpsie	i
    usbp->ep0state = USB_EP0_ERROR;
    return;
  default:
    osalDbgAssert(false, "EP0 state machine invalid state");
  }
}
 8000e0e:	bd10      	pop	{r4, pc}
    usb_lld_stall_in(usbp, 0);
 8000e10:	2384      	movs	r3, #132	@ 0x84
 8000e12:	58c2      	ldr	r2, [r0, r3]
  CHEPR_SET_STATTX(usbp, ep, USB_EP_TX_STALL);
 8000e14:	491a      	ldr	r1, [pc, #104]	@ (8000e80 <_usb_ep0in+0xb0>)
 8000e16:	6813      	ldr	r3, [r2, #0]
 8000e18:	400b      	ands	r3, r1
 8000e1a:	2110      	movs	r1, #16
 8000e1c:	404b      	eors	r3, r1
 8000e1e:	4919      	ldr	r1, [pc, #100]	@ (8000e84 <_usb_ep0in+0xb4>)
 8000e20:	430b      	orrs	r3, r1
 8000e22:	6013      	str	r3, [r2, #0]
  CHEPR_SET_STATRX(usbp, ep, USB_EP_RX_STALL);
 8000e24:	6810      	ldr	r0, [r2, #0]
 8000e26:	4b18      	ldr	r3, [pc, #96]	@ (8000e88 <_usb_ep0in+0xb8>)
 8000e28:	4018      	ands	r0, r3
 8000e2a:	2380      	movs	r3, #128	@ 0x80
 8000e2c:	015b      	lsls	r3, r3, #5
 8000e2e:	4043      	eors	r3, r0
 8000e30:	4319      	orrs	r1, r3
    _usb_isr_invoke_event_cb(usbp, USB_EVENT_STALLED);
 8000e32:	6863      	ldr	r3, [r4, #4]
 8000e34:	6011      	str	r1, [r2, #0]
 8000e36:	681b      	ldr	r3, [r3, #0]
 8000e38:	2b00      	cmp	r3, #0
 8000e3a:	d002      	beq.n	8000e42 <_usb_ep0in+0x72>
 8000e3c:	2106      	movs	r1, #6
 8000e3e:	0020      	movs	r0, r4
 8000e40:	4798      	blx	r3
    usbp->ep0state = USB_EP0_ERROR;
 8000e42:	2364      	movs	r3, #100	@ 0x64
 8000e44:	2206      	movs	r2, #6
 8000e46:	54e2      	strb	r2, [r4, r3]
    return;
 8000e48:	e7e1      	b.n	8000e0e <_usb_ep0in+0x3e>
    if (usbp->ep0endcb != NULL) {
 8000e4a:	6f03      	ldr	r3, [r0, #112]	@ 0x70
 8000e4c:	2b00      	cmp	r3, #0
 8000e4e:	d000      	beq.n	8000e52 <_usb_ep0in+0x82>
      usbp->ep0endcb(usbp);
 8000e50:	4798      	blx	r3
    usbp->ep0state = USB_EP0_STP_WAITING;
 8000e52:	2364      	movs	r3, #100	@ 0x64
 8000e54:	2200      	movs	r2, #0
 8000e56:	54e2      	strb	r2, [r4, r3]
    return;
 8000e58:	e7d9      	b.n	8000e0e <_usb_ep0in+0x3e>
        ((usbp->ep0n % usbp->epc[0]->in_maxsize) == 0U)) {
 8000e5a:	68e3      	ldr	r3, [r4, #12]
 8000e5c:	8a19      	ldrh	r1, [r3, #16]
 8000e5e:	f7ff fadd 	bl	800041c <__aeabi_uidivmod>
    if ((usbp->ep0n < max) &&
 8000e62:	2900      	cmp	r1, #0
 8000e64:	d1c8      	bne.n	8000df8 <_usb_ep0in+0x28>
  __ASM volatile ("cpsid i" : : : "memory");
 8000e66:	b672      	cpsid	i
      usbStartTransmitI(usbp, 0, NULL, 0);
 8000e68:	2300      	movs	r3, #0
 8000e6a:	2200      	movs	r2, #0
 8000e6c:	0020      	movs	r0, r4
 8000e6e:	f7ff fd5f 	bl	8000930 <usbStartTransmitI>
  __ASM volatile ("cpsie i" : : : "memory");
 8000e72:	b662      	cpsie	i
      usbp->ep0state = USB_EP0_IN_WAITING_TX0;
 8000e74:	2364      	movs	r3, #100	@ 0x64
 8000e76:	220a      	movs	r2, #10
 8000e78:	54e2      	strb	r2, [r4, r3]
      return;
 8000e7a:	e7c8      	b.n	8000e0e <_usb_ep0in+0x3e>
 8000e7c:	08003bb0 	.word	0x08003bb0
 8000e80:	ffff87bf 	.word	0xffff87bf
 8000e84:	00008080 	.word	0x00008080
 8000e88:	ffffb78f 	.word	0xffffb78f
 8000e8c:	00000000 	.word	0x00000000

08000e90 <_usb_ep0out>:
 * @notapi
 */
void _usb_ep0out(USBDriver *usbp, usbep_t ep) {

  (void)ep;
  switch (usbp->ep0state) {
 8000e90:	2364      	movs	r3, #100	@ 0x64
void _usb_ep0out(USBDriver *usbp, usbep_t ep) {
 8000e92:	b510      	push	{r4, lr}
  switch (usbp->ep0state) {
 8000e94:	5cc3      	ldrb	r3, [r0, r3]
void _usb_ep0out(USBDriver *usbp, usbep_t ep) {
 8000e96:	0004      	movs	r4, r0
  switch (usbp->ep0state) {
 8000e98:	2b15      	cmp	r3, #21
 8000e9a:	d81f      	bhi.n	8000edc <_usb_ep0out+0x4c>
 8000e9c:	4a1c      	ldr	r2, [pc, #112]	@ (8000f10 <_usb_ep0out+0x80>)
 8000e9e:	009b      	lsls	r3, r3, #2
 8000ea0:	58d3      	ldr	r3, [r2, r3]
 8000ea2:	469f      	mov	pc, r3
    /* Falls through.*/
  case USB_EP0_ERROR:
    /* Error response, the state machine goes into an error state, the low
       level layer will have to reset it to USB_EP0_WAITING_SETUP after
       receiving a SETUP packet.*/
    usb_lld_stall_in(usbp, 0);
 8000ea4:	2384      	movs	r3, #132	@ 0x84
 8000ea6:	58c2      	ldr	r2, [r0, r3]
  CHEPR_SET_STATTX(usbp, ep, USB_EP_TX_STALL);
 8000ea8:	491a      	ldr	r1, [pc, #104]	@ (8000f14 <_usb_ep0out+0x84>)
 8000eaa:	6813      	ldr	r3, [r2, #0]
 8000eac:	400b      	ands	r3, r1
 8000eae:	2110      	movs	r1, #16
 8000eb0:	404b      	eors	r3, r1
 8000eb2:	4919      	ldr	r1, [pc, #100]	@ (8000f18 <_usb_ep0out+0x88>)
 8000eb4:	430b      	orrs	r3, r1
 8000eb6:	6013      	str	r3, [r2, #0]
  CHEPR_SET_STATRX(usbp, ep, USB_EP_RX_STALL);
 8000eb8:	6810      	ldr	r0, [r2, #0]
 8000eba:	4b18      	ldr	r3, [pc, #96]	@ (8000f1c <_usb_ep0out+0x8c>)
 8000ebc:	4018      	ands	r0, r3
 8000ebe:	2380      	movs	r3, #128	@ 0x80
 8000ec0:	015b      	lsls	r3, r3, #5
 8000ec2:	4043      	eors	r3, r0
 8000ec4:	4319      	orrs	r1, r3
    usb_lld_stall_out(usbp, 0);
    _usb_isr_invoke_event_cb(usbp, USB_EVENT_STALLED);
 8000ec6:	6863      	ldr	r3, [r4, #4]
 8000ec8:	6011      	str	r1, [r2, #0]
 8000eca:	681b      	ldr	r3, [r3, #0]
 8000ecc:	2b00      	cmp	r3, #0
 8000ece:	d002      	beq.n	8000ed6 <_usb_ep0out+0x46>
 8000ed0:	2106      	movs	r1, #6
 8000ed2:	0020      	movs	r0, r4
 8000ed4:	4798      	blx	r3
    usbp->ep0state = USB_EP0_ERROR;
 8000ed6:	2364      	movs	r3, #100	@ 0x64
 8000ed8:	2206      	movs	r2, #6
 8000eda:	54e2      	strb	r2, [r4, r3]
    return;
  default:
    osalDbgAssert(false, "EP0 state machine invalid state");
  }
}
 8000edc:	bd10      	pop	{r4, pc}
    usbp->ep0state = USB_EP0_IN_SENDING_STS;
 8000ede:	2364      	movs	r3, #100	@ 0x64
 8000ee0:	220b      	movs	r2, #11
 8000ee2:	54c2      	strb	r2, [r0, r3]
  __ASM volatile ("cpsid i" : : : "memory");
 8000ee4:	b672      	cpsid	i
    usbStartTransmitI(usbp, 0, NULL, 0);
 8000ee6:	2300      	movs	r3, #0
 8000ee8:	2200      	movs	r2, #0
 8000eea:	2100      	movs	r1, #0
 8000eec:	f7ff fd20 	bl	8000930 <usbStartTransmitI>
  __ASM volatile ("cpsie i" : : : "memory");
 8000ef0:	b662      	cpsie	i
 8000ef2:	e7f3      	b.n	8000edc <_usb_ep0out+0x4c>
    if (usbGetReceiveTransactionSizeX(usbp, 0) != 0U) {
 8000ef4:	68c3      	ldr	r3, [r0, #12]
 8000ef6:	699b      	ldr	r3, [r3, #24]
 8000ef8:	685b      	ldr	r3, [r3, #4]
 8000efa:	2b00      	cmp	r3, #0
 8000efc:	d1ee      	bne.n	8000edc <_usb_ep0out+0x4c>
    if (usbp->ep0endcb != NULL) {
 8000efe:	6f03      	ldr	r3, [r0, #112]	@ 0x70
 8000f00:	2b00      	cmp	r3, #0
 8000f02:	d000      	beq.n	8000f06 <_usb_ep0out+0x76>
      usbp->ep0endcb(usbp);
 8000f04:	4798      	blx	r3
    usbp->ep0state = USB_EP0_STP_WAITING;
 8000f06:	2364      	movs	r3, #100	@ 0x64
 8000f08:	2200      	movs	r2, #0
 8000f0a:	54e2      	strb	r2, [r4, r3]
    return;
 8000f0c:	e7e6      	b.n	8000edc <_usb_ep0out+0x4c>
 8000f0e:	46c0      	nop			@ (mov r8, r8)
 8000f10:	08003c08 	.word	0x08003c08
 8000f14:	ffff87bf 	.word	0xffff87bf
 8000f18:	00008080 	.word	0x00008080
 8000f1c:	ffffb78f 	.word	0xffffb78f

08000f20 <sof_handler>:
}

/*
 * Handles the USB driver global events.
 */
static void sof_handler(USBDriver *usbp) {
 8000f20:	b570      	push	{r4, r5, r6, lr}
  __ASM volatile ("cpsid i" : : : "memory");
 8000f22:	b672      	cpsid	i
  if ((usbGetDriverStateI(sdup->config->usbp) != USB_ACTIVE) ||
 8000f24:	4b1c      	ldr	r3, [pc, #112]	@ (8000f98 <sof_handler+0x78>)
 8000f26:	4a1d      	ldr	r2, [pc, #116]	@ (8000f9c <sof_handler+0x7c>)
 8000f28:	589a      	ldr	r2, [r3, r2]
 8000f2a:	6810      	ldr	r0, [r2, #0]
 8000f2c:	7801      	ldrb	r1, [r0, #0]
 8000f2e:	2904      	cmp	r1, #4
 8000f30:	d102      	bne.n	8000f38 <sof_handler+0x18>
 8000f32:	7a19      	ldrb	r1, [r3, #8]
 8000f34:	2902      	cmp	r1, #2
 8000f36:	d001      	beq.n	8000f3c <sof_handler+0x1c>
  __ASM volatile ("cpsie i" : : : "memory");
 8000f38:	b662      	cpsie	i
  (void)usbp;

  osalSysLockFromISR();
  sduSOFHookI(&PORTAB_SDU1);
  osalSysUnlockFromISR();
}
 8000f3a:	bd70      	pop	{r4, r5, r6, pc}
  if (usbGetTransmitStatusI(sdup->config->usbp, sdup->config->bulk_in)) {
 8000f3c:	7911      	ldrb	r1, [r2, #4]
 8000f3e:	2201      	movs	r2, #1
 8000f40:	408a      	lsls	r2, r1
 8000f42:	8904      	ldrh	r4, [r0, #8]
 8000f44:	4222      	tst	r2, r4
 8000f46:	d1f7      	bne.n	8000f38 <sof_handler+0x18>

  osalDbgCheckClassI();

  /* If queue is empty and there is a buffer partially filled and
     it is not being written.*/
  if (obqIsEmptyI(obqp) && (obqp->ptr != NULL)) {
 8000f48:	6d5c      	ldr	r4, [r3, #84]	@ 0x54
 8000f4a:	6d9a      	ldr	r2, [r3, #88]	@ 0x58
 8000f4c:	4294      	cmp	r4, r2
 8000f4e:	d1f3      	bne.n	8000f38 <sof_handler+0x18>
 8000f50:	6d1c      	ldr	r4, [r3, #80]	@ 0x50
 8000f52:	2c00      	cmp	r4, #0
 8000f54:	d0f0      	beq.n	8000f38 <sof_handler+0x18>
 8000f56:	6edc      	ldr	r4, [r3, #108]	@ 0x6c
 8000f58:	2c00      	cmp	r4, #0
 8000f5a:	d0ed      	beq.n	8000f38 <sof_handler+0x18>
    size_t size = (size_t)obqp->ptr - ((size_t)obqp->bwrptr + sizeof (size_t));
 8000f5c:	3c04      	subs	r4, #4
 8000f5e:	1aa5      	subs	r5, r4, r2

    if (size > 0U) {
 8000f60:	4294      	cmp	r4, r2
 8000f62:	d0e9      	beq.n	8000f38 <sof_handler+0x18>

      /* Writing size field in the buffer.*/
      *((size_t *)(void *)obqp->bwrptr) = size;
 8000f64:	6015      	str	r5, [r2, #0]

      /* Posting the buffer in the queue.*/
      obqp->bcounter--;
 8000f66:	6d1c      	ldr	r4, [r3, #80]	@ 0x50
      obqp->bwrptr += obqp->bsize;
 8000f68:	6e1d      	ldr	r5, [r3, #96]	@ 0x60
      obqp->bcounter--;
 8000f6a:	3c01      	subs	r4, #1
 8000f6c:	651c      	str	r4, [r3, #80]	@ 0x50
      if (obqp->bwrptr >= obqp->btop) {
 8000f6e:	6ddc      	ldr	r4, [r3, #92]	@ 0x5c
      obqp->bwrptr += obqp->bsize;
 8000f70:	1955      	adds	r5, r2, r5
 8000f72:	655d      	str	r5, [r3, #84]	@ 0x54
      if (obqp->bwrptr >= obqp->btop) {
 8000f74:	42a5      	cmp	r5, r4
 8000f76:	d301      	bcc.n	8000f7c <sof_handler+0x5c>
        obqp->bwrptr = obqp->buffers;
 8000f78:	6e9d      	ldr	r5, [r3, #104]	@ 0x68
 8000f7a:	655d      	str	r5, [r3, #84]	@ 0x54
      }

      /* No "current" buffer.*/
      obqp->ptr = NULL;
 8000f7c:	2400      	movs	r4, #0
 8000f7e:	66dc      	str	r4, [r3, #108]	@ 0x6c
  if (obqIsEmptyI(obqp)) {
 8000f80:	42aa      	cmp	r2, r5
 8000f82:	d003      	beq.n	8000f8c <sof_handler+0x6c>
  *sizep = *((size_t *)(void *)obqp->brdptr);
 8000f84:	ca08      	ldmia	r2!, {r3}
    usbStartTransmitI(sdup->config->usbp, sdup->config->bulk_in, buf, n);
 8000f86:	f7ff fcd3 	bl	8000930 <usbStartTransmitI>
 8000f8a:	e7d5      	b.n	8000f38 <sof_handler+0x18>
  if (obqIsEmptyI(obqp)) {
 8000f8c:	6d1b      	ldr	r3, [r3, #80]	@ 0x50
 8000f8e:	2b00      	cmp	r3, #0
 8000f90:	d0f8      	beq.n	8000f84 <sof_handler+0x64>
    *sizep = 0U;
 8000f92:	2300      	movs	r3, #0
    return NULL;
 8000f94:	2200      	movs	r2, #0
 8000f96:	e7f6      	b.n	8000f86 <sof_handler+0x66>
 8000f98:	200009dc 	.word	0x200009dc
 8000f9c:	0000048c 	.word	0x0000048c

08000fa0 <__sch_wakeup>:
  __ASM volatile ("cpsid i" : : : "memory");
 8000fa0:	b672      	cpsid	i
  thread_t *tp = threadref(p);

  (void)vtp;

  chSysLockFromISR();
  switch (tp->state) {
 8000fa2:	2324      	movs	r3, #36	@ 0x24
 8000fa4:	5ccb      	ldrb	r3, [r1, r3]
 8000fa6:	2b0c      	cmp	r3, #12
 8000fa8:	d80b      	bhi.n	8000fc2 <__sch_wakeup+0x22>
 8000faa:	4a11      	ldr	r2, [pc, #68]	@ (8000ff0 <__sch_wakeup+0x50>)
 8000fac:	009b      	lsls	r3, r3, #2
 8000fae:	58d3      	ldr	r3, [r2, r3]
 8000fb0:	469f      	mov	pc, r3
  case CH_STATE_SUSPENDED:
    *tp->u.wttrp = NULL;
    break;
#if CH_CFG_USE_SEMAPHORES == TRUE
  case CH_STATE_WTSEM:
    chSemFastSignalI(tp->u.wtsemp);
 8000fb2:	6a8a      	ldr	r2, [r1, #40]	@ 0x28
 */
static inline void chSemFastSignalI(semaphore_t *sp) {

  chDbgCheckClassI();

  sp->cnt++;
 8000fb4:	6893      	ldr	r3, [r2, #8]
 8000fb6:	3301      	adds	r3, #1
 8000fb8:	6093      	str	r3, [r2, #8]
 *
 * @notapi
 */
static inline ch_queue_t *ch_queue_dequeue(ch_queue_t *p) {

  p->prev->next = p->next;
 8000fba:	684a      	ldr	r2, [r1, #4]
 8000fbc:	680b      	ldr	r3, [r1, #0]
 8000fbe:	6013      	str	r3, [r2, #0]
  p->next->prev = p->prev;
 8000fc0:	605a      	str	r2, [r3, #4]
    /* Any other state, nothing to do.*/
    break;
  }

  /* Standard message for timeout conditions.*/
  tp->u.rdymsg = MSG_TIMEOUT;
 8000fc2:	2301      	movs	r3, #1
  tp->state = CH_STATE_READY;
 8000fc4:	2200      	movs	r2, #0
  tp->u.rdymsg = MSG_TIMEOUT;
 8000fc6:	425b      	negs	r3, r3
 8000fc8:	628b      	str	r3, [r1, #40]	@ 0x28
  tp->state = CH_STATE_READY;
 8000fca:	3325      	adds	r3, #37	@ 0x25
 8000fcc:	54ca      	strb	r2, [r1, r3]
  return threadref(ch_pqueue_insert_behind(&tp->owner->rlist.pqueue,
 8000fce:	698b      	ldr	r3, [r1, #24]
                                                           ch_priority_queue_t *p) {

  /* Scanning priority queue, the list is assumed to be mostly empty.*/
  do {
    pqp = pqp->next;
  } while (unlikely(pqp->prio >= p->prio));
 8000fd0:	6888      	ldr	r0, [r1, #8]
    pqp = pqp->next;
 8000fd2:	681b      	ldr	r3, [r3, #0]
  } while (unlikely(pqp->prio >= p->prio));
 8000fd4:	689a      	ldr	r2, [r3, #8]
 8000fd6:	4282      	cmp	r2, r0
 8000fd8:	d2fb      	bcs.n	8000fd2 <__sch_wakeup+0x32>

  /* Insertion on prev.*/
  p->next       = pqp;
  p->prev       = pqp->prev;
 8000fda:	685a      	ldr	r2, [r3, #4]
  p->next       = pqp;
 8000fdc:	600b      	str	r3, [r1, #0]
  p->prev       = pqp->prev;
 8000fde:	604a      	str	r2, [r1, #4]
  p->prev->next = p;
 8000fe0:	6011      	str	r1, [r2, #0]
  pqp->prev     = p;
 8000fe2:	6059      	str	r1, [r3, #4]
  __ASM volatile ("cpsie i" : : : "memory");
 8000fe4:	b662      	cpsie	i
  /* Goes behind peers because it went to sleep voluntarily.*/
  (void) __sch_ready_behind(tp);
  chSysUnlockFromISR();

  return;
}
 8000fe6:	4770      	bx	lr
    *tp->u.wttrp = NULL;
 8000fe8:	2200      	movs	r2, #0
 8000fea:	6a8b      	ldr	r3, [r1, #40]	@ 0x28
 8000fec:	601a      	str	r2, [r3, #0]
    break;
 8000fee:	e7e8      	b.n	8000fc2 <__sch_wakeup+0x22>
 8000ff0:	08003c60 	.word	0x08003c60
	...

08001000 <chEvtBroadcastFlagsI>:
  event_listener_t *elp;

  chDbgCheckClassI();
  chDbgCheck(esp != NULL);

  elp = esp->next;
 8001000:	6803      	ldr	r3, [r0, #0]
void chEvtBroadcastFlagsI(event_source_t *esp, eventflags_t flags) {
 8001002:	b5f0      	push	{r4, r5, r6, r7, lr}
  /*lint -save -e9087 -e740 [11.3, 1.3] Cast required by list handling.*/
  while (elp != (event_listener_t *)esp) {
 8001004:	4298      	cmp	r0, r3
 8001006:	d03c      	beq.n	8001082 <chEvtBroadcastFlagsI+0x82>
  if (((tp->state == CH_STATE_WTOREVT) &&
 8001008:	2624      	movs	r6, #36	@ 0x24
    tp->u.rdymsg = MSG_OK;
 800100a:	2700      	movs	r7, #0
 800100c:	e00c      	b.n	8001028 <chEvtBroadcastFlagsI+0x28>
    elp->flags |= flags;
    /* When flags == 0 the thread will always be signaled because the
       source does not emit any flag.*/
    if ((flags == (eventflags_t)0) ||
        ((flags & elp->wflags) != (eventflags_t)0)) {
      chEvtSignalI(elp->listener, elp->events);
 800100e:	685a      	ldr	r2, [r3, #4]
  tp->epending |= events;
 8001010:	689c      	ldr	r4, [r3, #8]
 8001012:	6b95      	ldr	r5, [r2, #56]	@ 0x38
 8001014:	432c      	orrs	r4, r5
 8001016:	6394      	str	r4, [r2, #56]	@ 0x38
  if (((tp->state == CH_STATE_WTOREVT) &&
 8001018:	5d95      	ldrb	r5, [r2, r6]
 800101a:	2d0a      	cmp	r5, #10
 800101c:	d01d      	beq.n	800105a <chEvtBroadcastFlagsI+0x5a>
       ((tp->epending & tp->u.ewmask) != (eventmask_t)0)) ||
 800101e:	2d0b      	cmp	r5, #11
 8001020:	d030      	beq.n	8001084 <chEvtBroadcastFlagsI+0x84>
    }
    elp = elp->next;
 8001022:	681b      	ldr	r3, [r3, #0]
  while (elp != (event_listener_t *)esp) {
 8001024:	4298      	cmp	r0, r3
 8001026:	d02c      	beq.n	8001082 <chEvtBroadcastFlagsI+0x82>
    elp->flags |= flags;
 8001028:	68da      	ldr	r2, [r3, #12]
 800102a:	430a      	orrs	r2, r1
 800102c:	60da      	str	r2, [r3, #12]
    if ((flags == (eventflags_t)0) ||
 800102e:	2900      	cmp	r1, #0
 8001030:	d0ed      	beq.n	800100e <chEvtBroadcastFlagsI+0xe>
        ((flags & elp->wflags) != (eventflags_t)0)) {
 8001032:	691a      	ldr	r2, [r3, #16]
    if ((flags == (eventflags_t)0) ||
 8001034:	420a      	tst	r2, r1
 8001036:	d1ea      	bne.n	800100e <chEvtBroadcastFlagsI+0xe>
    elp = elp->next;
 8001038:	681b      	ldr	r3, [r3, #0]
  while (elp != (event_listener_t *)esp) {
 800103a:	4298      	cmp	r0, r3
 800103c:	d021      	beq.n	8001082 <chEvtBroadcastFlagsI+0x82>
    elp->flags |= flags;
 800103e:	68da      	ldr	r2, [r3, #12]
 8001040:	430a      	orrs	r2, r1
 8001042:	60da      	str	r2, [r3, #12]
        ((flags & elp->wflags) != (eventflags_t)0)) {
 8001044:	691a      	ldr	r2, [r3, #16]
    if ((flags == (eventflags_t)0) ||
 8001046:	420a      	tst	r2, r1
 8001048:	d0f6      	beq.n	8001038 <chEvtBroadcastFlagsI+0x38>
      chEvtSignalI(elp->listener, elp->events);
 800104a:	685a      	ldr	r2, [r3, #4]
  tp->epending |= events;
 800104c:	689c      	ldr	r4, [r3, #8]
 800104e:	6b95      	ldr	r5, [r2, #56]	@ 0x38
 8001050:	432c      	orrs	r4, r5
 8001052:	6394      	str	r4, [r2, #56]	@ 0x38
  if (((tp->state == CH_STATE_WTOREVT) &&
 8001054:	5d95      	ldrb	r5, [r2, r6]
 8001056:	2d0a      	cmp	r5, #10
 8001058:	d1e1      	bne.n	800101e <chEvtBroadcastFlagsI+0x1e>
       ((tp->epending & tp->u.ewmask) != (eventmask_t)0)) ||
 800105a:	6a95      	ldr	r5, [r2, #40]	@ 0x28
  if (((tp->state == CH_STATE_WTOREVT) &&
 800105c:	4225      	tst	r5, r4
 800105e:	d0e0      	beq.n	8001022 <chEvtBroadcastFlagsI+0x22>
    tp->u.rdymsg = MSG_OK;
 8001060:	6297      	str	r7, [r2, #40]	@ 0x28
  tp->state = CH_STATE_READY;
 8001062:	5597      	strb	r7, [r2, r6]
  } while (unlikely(pqp->prio >= p->prio));
 8001064:	6895      	ldr	r5, [r2, #8]
  return threadref(ch_pqueue_insert_behind(&tp->owner->rlist.pqueue,
 8001066:	6994      	ldr	r4, [r2, #24]
 8001068:	46ac      	mov	ip, r5
    pqp = pqp->next;
 800106a:	6824      	ldr	r4, [r4, #0]
  } while (unlikely(pqp->prio >= p->prio));
 800106c:	68a5      	ldr	r5, [r4, #8]
 800106e:	4565      	cmp	r5, ip
 8001070:	d2fb      	bcs.n	800106a <chEvtBroadcastFlagsI+0x6a>
  p->prev       = pqp->prev;
 8001072:	6865      	ldr	r5, [r4, #4]
    elp = elp->next;
 8001074:	681b      	ldr	r3, [r3, #0]
  p->next       = pqp;
 8001076:	6014      	str	r4, [r2, #0]
  p->prev       = pqp->prev;
 8001078:	6055      	str	r5, [r2, #4]
  p->prev->next = p;
 800107a:	602a      	str	r2, [r5, #0]
  pqp->prev     = p;
 800107c:	6062      	str	r2, [r4, #4]
  while (elp != (event_listener_t *)esp) {
 800107e:	4298      	cmp	r0, r3
 8001080:	d1d2      	bne.n	8001028 <chEvtBroadcastFlagsI+0x28>
  }
}
 8001082:	bdf0      	pop	{r4, r5, r6, r7, pc}
       ((tp->epending & tp->u.ewmask) == tp->u.ewmask))) {
 8001084:	6a95      	ldr	r5, [r2, #40]	@ 0x28
 8001086:	402c      	ands	r4, r5
      ((tp->state == CH_STATE_WTANDEVT) &&
 8001088:	42a5      	cmp	r5, r4
 800108a:	d1ca      	bne.n	8001022 <chEvtBroadcastFlagsI+0x22>
 800108c:	e7e8      	b.n	8001060 <chEvtBroadcastFlagsI+0x60>
 800108e:	46c0      	nop			@ (mov r8, r8)

08001090 <sduDataTransmitted>:
void sduDataTransmitted(USBDriver *usbp, usbep_t ep) {
 8001090:	b5f8      	push	{r3, r4, r5, r6, r7, lr}
  SerialUSBDriver *sdup = usbp->in_params[ep - 1U];
 8001092:	000b      	movs	r3, r1
void sduDataTransmitted(USBDriver *usbp, usbep_t ep) {
 8001094:	46ce      	mov	lr, r9
 8001096:	4647      	mov	r7, r8
  SerialUSBDriver *sdup = usbp->in_params[ep - 1U];
 8001098:	3309      	adds	r3, #9
 800109a:	009b      	lsls	r3, r3, #2
 800109c:	18c3      	adds	r3, r0, r3
 800109e:	685c      	ldr	r4, [r3, #4]
void sduDataTransmitted(USBDriver *usbp, usbep_t ep) {
 80010a0:	0005      	movs	r5, r0
 80010a2:	000e      	movs	r6, r1
 80010a4:	b580      	push	{r7, lr}
  if (sdup == NULL) {
 80010a6:	2c00      	cmp	r4, #0
 80010a8:	d017      	beq.n	80010da <sduDataTransmitted+0x4a>
  __ASM volatile ("cpsid i" : : : "memory");
 80010aa:	b672      	cpsid	i
 * @iclass
 */
static inline void osalEventBroadcastFlagsI(event_source_t *esp,
                                            eventflags_t flags) {

  chEvtBroadcastFlagsI(esp, flags);
 80010ac:	2108      	movs	r1, #8
  chnAddFlagsI(sdup, CHN_OUTPUT_EMPTY);
 80010ae:	1d20      	adds	r0, r4, #4
 80010b0:	f7ff ffa6 	bl	8001000 <chEvtBroadcastFlagsI>
  if (usbp->epc[ep]->in_state->txsize > 0U) {
 80010b4:	1cb3      	adds	r3, r6, #2
 80010b6:	009b      	lsls	r3, r3, #2
 80010b8:	18eb      	adds	r3, r5, r3
 80010ba:	6858      	ldr	r0, [r3, #4]
 80010bc:	6943      	ldr	r3, [r0, #20]
 80010be:	681b      	ldr	r3, [r3, #0]
 80010c0:	4699      	mov	r9, r3
 80010c2:	2b00      	cmp	r3, #0
 80010c4:	d10d      	bne.n	80010e2 <sduDataTransmitted+0x52>
  if (obqIsEmptyI(obqp)) {
 80010c6:	6da2      	ldr	r2, [r4, #88]	@ 0x58
 80010c8:	6d63      	ldr	r3, [r4, #84]	@ 0x54
 80010ca:	429a      	cmp	r2, r3
 80010cc:	d040      	beq.n	8001150 <sduDataTransmitted+0xc0>
    usbStartTransmitI(usbp, ep, buf, n);
 80010ce:	0031      	movs	r1, r6
 80010d0:	0028      	movs	r0, r5
 80010d2:	ca08      	ldmia	r2!, {r3}
 80010d4:	f7ff fc2c 	bl	8000930 <usbStartTransmitI>
  __ASM volatile ("cpsie i" : : : "memory");
 80010d8:	b662      	cpsie	i
}
 80010da:	bcc0      	pop	{r6, r7}
 80010dc:	46b9      	mov	r9, r7
 80010de:	46b0      	mov	r8, r6
 80010e0:	bdf8      	pop	{r3, r4, r5, r6, r7, pc}
  obqp->bcounter++;
 80010e2:	6d23      	ldr	r3, [r4, #80]	@ 0x50
  obqp->brdptr += obqp->bsize;
 80010e4:	6da2      	ldr	r2, [r4, #88]	@ 0x58
  obqp->bcounter++;
 80010e6:	3301      	adds	r3, #1
 80010e8:	6523      	str	r3, [r4, #80]	@ 0x50
  obqp->brdptr += obqp->bsize;
 80010ea:	6e23      	ldr	r3, [r4, #96]	@ 0x60
 80010ec:	18d2      	adds	r2, r2, r3
  if (obqp->brdptr >= obqp->btop) {
 80010ee:	6de3      	ldr	r3, [r4, #92]	@ 0x5c
  obqp->brdptr += obqp->bsize;
 80010f0:	65a2      	str	r2, [r4, #88]	@ 0x58
  if (obqp->brdptr >= obqp->btop) {
 80010f2:	429a      	cmp	r2, r3
 80010f4:	d301      	bcc.n	80010fa <sduDataTransmitted+0x6a>
    obqp->brdptr = obqp->buffers;
 80010f6:	6ea2      	ldr	r2, [r4, #104]	@ 0x68
 80010f8:	65a2      	str	r2, [r4, #88]	@ 0x58
 *
 * @iclass
 */
void chThdDequeueNextI(threads_queue_t *tqp, msg_t msg) {

  if (ch_queue_notempty(&tqp->queue)) {
 80010fa:	0027      	movs	r7, r4
  return (bool)(qp->next != qp);
 80010fc:	6c63      	ldr	r3, [r4, #68]	@ 0x44
 80010fe:	3744      	adds	r7, #68	@ 0x44
 8001100:	429f      	cmp	r7, r3
 8001102:	d012      	beq.n	800112a <sduDataTransmitted+0x9a>
  qp->next       = p->next;
 8001104:	6819      	ldr	r1, [r3, #0]
 8001106:	6461      	str	r1, [r4, #68]	@ 0x44
  qp->next->prev = qp;
 8001108:	604f      	str	r7, [r1, #4]

  tp = threadref(ch_queue_fifo_remove(&tqp->queue));

  chDbgAssert(tp->state == CH_STATE_QUEUED, "invalid state");

  tp->u.rdymsg = msg;
 800110a:	2700      	movs	r7, #0
  tp->state = CH_STATE_READY;
 800110c:	2124      	movs	r1, #36	@ 0x24
 800110e:	629f      	str	r7, [r3, #40]	@ 0x28
 8001110:	545f      	strb	r7, [r3, r1]
  } while (unlikely(pqp->prio >= p->prio));
 8001112:	6899      	ldr	r1, [r3, #8]
  return threadref(ch_pqueue_insert_behind(&tp->owner->rlist.pqueue,
 8001114:	699f      	ldr	r7, [r3, #24]
 8001116:	4688      	mov	r8, r1
    pqp = pqp->next;
 8001118:	683f      	ldr	r7, [r7, #0]
  } while (unlikely(pqp->prio >= p->prio));
 800111a:	68b9      	ldr	r1, [r7, #8]
 800111c:	4541      	cmp	r1, r8
 800111e:	d2fb      	bcs.n	8001118 <sduDataTransmitted+0x88>
  p->prev       = pqp->prev;
 8001120:	6879      	ldr	r1, [r7, #4]
  p->next       = pqp;
 8001122:	601f      	str	r7, [r3, #0]
  p->prev       = pqp->prev;
 8001124:	6059      	str	r1, [r3, #4]
  p->prev->next = p;
 8001126:	600b      	str	r3, [r1, #0]
  pqp->prev     = p;
 8001128:	607b      	str	r3, [r7, #4]
  if (obqIsEmptyI(obqp)) {
 800112a:	6d63      	ldr	r3, [r4, #84]	@ 0x54
 800112c:	4293      	cmp	r3, r2
 800112e:	d1ce      	bne.n	80010ce <sduDataTransmitted+0x3e>
 8001130:	6d23      	ldr	r3, [r4, #80]	@ 0x50
 8001132:	2b00      	cmp	r3, #0
 8001134:	d0cb      	beq.n	80010ce <sduDataTransmitted+0x3e>
  else if ((usbp->epc[ep]->in_state->txsize > 0U) &&
 8001136:	464a      	mov	r2, r9
            ((size_t)usbp->epc[ep]->in_maxsize - 1U)) == 0U)) {
 8001138:	8a03      	ldrh	r3, [r0, #16]
 800113a:	3b01      	subs	r3, #1
  else if ((usbp->epc[ep]->in_state->txsize > 0U) &&
 800113c:	421a      	tst	r2, r3
 800113e:	d1cb      	bne.n	80010d8 <sduDataTransmitted+0x48>
    usbStartTransmitI(usbp, ep, usbp->setup, 0);
 8001140:	002a      	movs	r2, r5
 8001142:	2300      	movs	r3, #0
 8001144:	0031      	movs	r1, r6
 8001146:	0028      	movs	r0, r5
 8001148:	3274      	adds	r2, #116	@ 0x74
 800114a:	f7ff fbf1 	bl	8000930 <usbStartTransmitI>
 800114e:	e7c3      	b.n	80010d8 <sduDataTransmitted+0x48>
 8001150:	6d23      	ldr	r3, [r4, #80]	@ 0x50
 8001152:	2b00      	cmp	r3, #0
 8001154:	d0bb      	beq.n	80010ce <sduDataTransmitted+0x3e>
 8001156:	e7bf      	b.n	80010d8 <sduDataTransmitted+0x48>
	...

08001160 <sduDataReceived>:
  SerialUSBDriver *sdup = usbp->out_params[ep - 1U];
 8001160:	3111      	adds	r1, #17
 8001162:	0089      	lsls	r1, r1, #2
void sduDataReceived(USBDriver *usbp, usbep_t ep) {
 8001164:	b570      	push	{r4, r5, r6, lr}
  SerialUSBDriver *sdup = usbp->out_params[ep - 1U];
 8001166:	580c      	ldr	r4, [r1, r0]
  if (sdup == NULL) {
 8001168:	2c00      	cmp	r4, #0
 800116a:	d010      	beq.n	800118e <sduDataReceived+0x2e>
  __ASM volatile ("cpsid i" : : : "memory");
 800116c:	b672      	cpsid	i
  size = usbGetReceiveTransactionSizeX(sdup->config->usbp,
 800116e:	4b1d      	ldr	r3, [pc, #116]	@ (80011e4 <sduDataReceived+0x84>)
 8001170:	58e3      	ldr	r3, [r4, r3]
 8001172:	681a      	ldr	r2, [r3, #0]
 8001174:	795b      	ldrb	r3, [r3, #5]
 8001176:	3302      	adds	r3, #2
 8001178:	009b      	lsls	r3, r3, #2
 800117a:	18d3      	adds	r3, r2, r3
 800117c:	685b      	ldr	r3, [r3, #4]
 800117e:	699b      	ldr	r3, [r3, #24]
 8001180:	685d      	ldr	r5, [r3, #4]
  if (size > (size_t)0) {
 8001182:	2d00      	cmp	r5, #0
 8001184:	d104      	bne.n	8001190 <sduDataReceived+0x30>
  (void) sdu_start_receive(sdup);
 8001186:	0020      	movs	r0, r4
 8001188:	f7ff f9d2 	bl	8000530 <sdu_start_receive.isra.0>
  __ASM volatile ("cpsie i" : : : "memory");
 800118c:	b662      	cpsie	i
}
 800118e:	bd70      	pop	{r4, r5, r6, pc}
 8001190:	2104      	movs	r1, #4
    chnAddFlagsI(sdup, CHN_INPUT_AVAILABLE);
 8001192:	1d20      	adds	r0, r4, #4
 8001194:	f7ff ff34 	bl	8001000 <chEvtBroadcastFlagsI>
  *((size_t *)(void *)ibqp->bwrptr) = size;
 8001198:	69e3      	ldr	r3, [r4, #28]
 800119a:	601d      	str	r5, [r3, #0]
  ibqp->bcounter++;
 800119c:	69a2      	ldr	r2, [r4, #24]
 800119e:	3201      	adds	r2, #1
 80011a0:	61a2      	str	r2, [r4, #24]
  ibqp->bwrptr += ibqp->bsize;
 80011a2:	6aa2      	ldr	r2, [r4, #40]	@ 0x28
 80011a4:	189b      	adds	r3, r3, r2
  if (ibqp->bwrptr >= ibqp->btop) {
 80011a6:	6a62      	ldr	r2, [r4, #36]	@ 0x24
  ibqp->bwrptr += ibqp->bsize;
 80011a8:	61e3      	str	r3, [r4, #28]
  if (ibqp->bwrptr >= ibqp->btop) {
 80011aa:	4293      	cmp	r3, r2
 80011ac:	d301      	bcc.n	80011b2 <sduDataReceived+0x52>
    ibqp->bwrptr = ibqp->buffers;
 80011ae:	6b23      	ldr	r3, [r4, #48]	@ 0x30
 80011b0:	61e3      	str	r3, [r4, #28]
 80011b2:	0022      	movs	r2, r4
  return (bool)(qp->next != qp);
 80011b4:	68e3      	ldr	r3, [r4, #12]
 80011b6:	320c      	adds	r2, #12
 80011b8:	429a      	cmp	r2, r3
 80011ba:	d0e4      	beq.n	8001186 <sduDataReceived+0x26>
  qp->next       = p->next;
 80011bc:	6819      	ldr	r1, [r3, #0]
 80011be:	60e1      	str	r1, [r4, #12]
  qp->next->prev = qp;
 80011c0:	604a      	str	r2, [r1, #4]
 80011c2:	2200      	movs	r2, #0
  tp->state = CH_STATE_READY;
 80011c4:	2124      	movs	r1, #36	@ 0x24
 80011c6:	629a      	str	r2, [r3, #40]	@ 0x28
 80011c8:	545a      	strb	r2, [r3, r1]
  return threadref(ch_pqueue_insert_behind(&tp->owner->rlist.pqueue,
 80011ca:	699a      	ldr	r2, [r3, #24]
  } while (unlikely(pqp->prio >= p->prio));
 80011cc:	6898      	ldr	r0, [r3, #8]
    pqp = pqp->next;
 80011ce:	6812      	ldr	r2, [r2, #0]
  } while (unlikely(pqp->prio >= p->prio));
 80011d0:	6891      	ldr	r1, [r2, #8]
 80011d2:	4281      	cmp	r1, r0
 80011d4:	d2fb      	bcs.n	80011ce <sduDataReceived+0x6e>
  p->prev       = pqp->prev;
 80011d6:	6851      	ldr	r1, [r2, #4]
  p->next       = pqp;
 80011d8:	601a      	str	r2, [r3, #0]
  p->prev       = pqp->prev;
 80011da:	6059      	str	r1, [r3, #4]
  p->prev->next = p;
 80011dc:	600b      	str	r3, [r1, #0]
  pqp->prev     = p;
 80011de:	6053      	str	r3, [r2, #4]
 80011e0:	e7d1      	b.n	8001186 <sduDataReceived+0x26>
 80011e2:	46c0      	nop			@ (mov r8, r8)
 80011e4:	0000048c 	.word	0x0000048c
	...

080011f0 <vt_insert_first.constprop.0>:
                            sysinterval_t delay) {
  sysinterval_t currdelta;

  /* The delta list is empty, the current time becomes the new
     delta list base time, the timer is inserted.*/
  vtlp->lasttime = now;
 80011f0:	4b1a      	ldr	r3, [pc, #104]	@ (800125c <vt_insert_first.constprop.0+0x6c>)
static void vt_insert_first(virtual_timers_list_t *vtlp,
 80011f2:	b530      	push	{r4, r5, lr}
static inline void ch_dlist_insert_after(ch_delta_list_t *dlhp,
                                         ch_delta_list_t *dlp,
                                         sysinterval_t delta) {

  dlp->delta      = delta;
  dlp->prev       = dlhp;
 80011f4:	001c      	movs	r4, r3
 80011f6:	3410      	adds	r4, #16
  vtlp->lasttime = now;
 80011f8:	8399      	strh	r1, [r3, #28]
 80011fa:	6044      	str	r4, [r0, #4]
  dlp->next       = dlp->prev->next;
 80011fc:	691c      	ldr	r4, [r3, #16]
  dlp->delta      = delta;
 80011fe:	8102      	strh	r2, [r0, #8]
  dlp->next       = dlp->prev->next;
 8001200:	6004      	str	r4, [r0, #0]
  dlp->next->prev = dlp;
 8001202:	6060      	str	r0, [r4, #4]
  dlhp->next      = dlp;
 8001204:	6118      	str	r0, [r3, #16]
  /* Initial delta is what is configured statically.*/
  currdelta = (sysinterval_t)CH_CFG_ST_TIMEDELTA;

  /* If the requested delay is lower than the minimum safe delta then it
     is raised to the minimum safe value.*/
  if (delay < currdelta) {
 8001206:	1c10      	adds	r0, r2, #0
 8001208:	2a02      	cmp	r2, #2
 800120a:	d200      	bcs.n	800120e <vt_insert_first.constprop.0+0x1e>
 800120c:	2002      	movs	r0, #2
 800120e:	b282      	uxth	r2, r0

#if CH_CFG_ST_RESOLUTION != CH_CFG_INTERVALS_SIZE
  chDbgCheck(interval <= (sysinterval_t)TIME_MAX_SYSTIME);
#endif

  return systime + (systime_t)interval;
 8001210:	188c      	adds	r4, r1, r2
 *
 * @notapi
 */
static inline void st_lld_start_alarm(systime_t abstime) {

  STM32_ST_TIM->CCR[0] = (uint32_t)abstime;
 8001212:	4813      	ldr	r0, [pc, #76]	@ (8001260 <vt_insert_first.constprop.0+0x70>)
 8001214:	b2a4      	uxth	r4, r4
 8001216:	6344      	str	r4, [r0, #52]	@ 0x34
  STM32_ST_TIM->SR     = 0;
 8001218:	2400      	movs	r4, #0
 800121a:	6104      	str	r4, [r0, #16]
#if ST_LLD_NUM_ALARMS == 1
  STM32_ST_TIM->DIER   = STM32_TIM_DIER_CC1IE;
 800121c:	3402      	adds	r4, #2
 800121e:	60c4      	str	r4, [r0, #12]
  return (systime_t)STM32_ST_TIM->CNT;
 8001220:	6a44      	ldr	r4, [r0, #36]	@ 0x24
 8001222:	b2a4      	uxth	r4, r4
 */
static inline sysinterval_t chTimeDiffX(systime_t start, systime_t end) {

  /*lint -save -e9033 [10.8] This cast is required by the operation, it is
    known that the destination type can be wider.*/
  return (sysinterval_t)((systime_t)(end - start));
 8001224:	1a65      	subs	r5, r4, r1
       Note that the "<" condition is intentional, we want to make sure
       that the alarm is set before the deadline is reached because the
       comparison could happen on the transition depending on the timer
       architecture.*/
    newnow = chVTGetSystemTimeX();
    if (likely(chTimeDiffX(now, newnow) < delay)) {
 8001226:	b2ad      	uxth	r5, r5
 8001228:	42aa      	cmp	r2, r5
 800122a:	d900      	bls.n	800122e <vt_insert_first.constprop.0+0x3e>
  }
#else
  /* Assertions as fallback.*/
  chDbgAssert(currdelta <= CH_CFG_ST_TIMEDELTA, "insufficient delta");
#endif
}
 800122c:	bd30      	pop	{r4, r5, pc}
  currdelta = (sysinterval_t)CH_CFG_ST_TIMEDELTA;
 800122e:	2202      	movs	r2, #2
    currdelta += (sysinterval_t)1;
 8001230:	3201      	adds	r2, #1
 8001232:	b292      	uxth	r2, r2
  return systime + (systime_t)interval;
 8001234:	1851      	adds	r1, r2, r1
 *
 * @notapi
 */
static inline void st_lld_set_alarm(systime_t abstime) {

  STM32_ST_TIM->CCR[0] = (uint32_t)abstime;
 8001236:	b289      	uxth	r1, r1
 8001238:	6341      	str	r1, [r0, #52]	@ 0x34
  return (systime_t)STM32_ST_TIM->CNT;
 800123a:	6a45      	ldr	r5, [r0, #36]	@ 0x24
 800123c:	b2ad      	uxth	r5, r5
  return (sysinterval_t)((systime_t)(end - start));
 800123e:	1b29      	subs	r1, r5, r4
 8001240:	b289      	uxth	r1, r1
    if (likely(chTimeDiffX(now, newnow) < delay)) {
 8001242:	4291      	cmp	r1, r2
 8001244:	d206      	bcs.n	8001254 <vt_insert_first.constprop.0+0x64>
  if (currdelta > CH_CFG_ST_TIMEDELTA) {
 8001246:	2a02      	cmp	r2, #2
 8001248:	d9f0      	bls.n	800122c <vt_insert_first.constprop.0+0x3c>
 * @param[in] mask      fault flags to be added
 */
void chRFCUCollectFaultsI(rfcu_mask_t mask) {

#if CH_CFG_SMP_MODE == FALSE
  currcore->rfcu.mask |= mask;
 800124a:	2101      	movs	r1, #1
 800124c:	6b5a      	ldr	r2, [r3, #52]	@ 0x34
 800124e:	430a      	orrs	r2, r1
 8001250:	635a      	str	r2, [r3, #52]	@ 0x34
}
 8001252:	e7eb      	b.n	800122c <vt_insert_first.constprop.0+0x3c>
 8001254:	0021      	movs	r1, r4
 8001256:	002c      	movs	r4, r5
 8001258:	e7ea      	b.n	8001230 <vt_insert_first.constprop.0+0x40>
 800125a:	46c0      	nop			@ (mov r8, r8)
 800125c:	200010b0 	.word	0x200010b0
 8001260:	40014800 	.word	0x40014800
	...

08001270 <chSchGoSleepTimeoutS>:
 * @return              The wakeup message.
 * @retval MSG_TIMEOUT  if a timeout occurs.
 *
 * @sclass
 */
msg_t chSchGoSleepTimeoutS(tstate_t newstate, sysinterval_t timeout) {
 8001270:	b5f0      	push	{r4, r5, r6, r7, lr}
 8001272:	464f      	mov	r7, r9
 8001274:	4646      	mov	r6, r8
 8001276:	46d6      	mov	lr, sl
  thread_t *tp = __instance_get_currthread(currcore);
 8001278:	4d70      	ldr	r5, [pc, #448]	@ (800143c <chSchGoSleepTimeoutS+0x1cc>)
msg_t chSchGoSleepTimeoutS(tstate_t newstate, sysinterval_t timeout) {
 800127a:	b5c0      	push	{r6, r7, lr}
  thread_t *tp = __instance_get_currthread(currcore);
 800127c:	68eb      	ldr	r3, [r5, #12]
msg_t chSchGoSleepTimeoutS(tstate_t newstate, sysinterval_t timeout) {
 800127e:	4681      	mov	r9, r0
  thread_t *tp = __instance_get_currthread(currcore);
 8001280:	4698      	mov	r8, r3

  chDbgCheckClassS();

  if (TIME_INFINITE != timeout) {
 8001282:	4b6f      	ldr	r3, [pc, #444]	@ (8001440 <chSchGoSleepTimeoutS+0x1d0>)
  ch_priority_queue_t *p = pqp->next;
 8001284:	682f      	ldr	r7, [r5, #0]
msg_t chSchGoSleepTimeoutS(tstate_t newstate, sysinterval_t timeout) {
 8001286:	b086      	sub	sp, #24
  if (TIME_INFINITE != timeout) {
 8001288:	4299      	cmp	r1, r3
 800128a:	d068      	beq.n	800135e <chSchGoSleepTimeoutS+0xee>

  chDbgCheckClassI();
  chDbgCheck((vtp != NULL) && (vtfunc != NULL) && (delay != TIME_IMMEDIATE));

  /* Timer initialization.*/
  vtp->par     = par;
 800128c:	466e      	mov	r6, sp
 800128e:	4643      	mov	r3, r8
 8001290:	6133      	str	r3, [r6, #16]
  vtp->func    = vtfunc;
 8001292:	4b6c      	ldr	r3, [pc, #432]	@ (8001444 <chSchGoSleepTimeoutS+0x1d4>)
  return (bool)(dlhp == dlhp->next);
 8001294:	6928      	ldr	r0, [r5, #16]
 8001296:	60f3      	str	r3, [r6, #12]
  vtp->reload  = (sysinterval_t)0;
 8001298:	2300      	movs	r3, #0
 800129a:	82b3      	strh	r3, [r6, #20]
 800129c:	4b6a      	ldr	r3, [pc, #424]	@ (8001448 <chSchGoSleepTimeoutS+0x1d8>)
 800129e:	6a5b      	ldr	r3, [r3, #36]	@ 0x24
 80012a0:	b29b      	uxth	r3, r3
 80012a2:	469c      	mov	ip, r3
    if (ch_dlist_isempty(&vtlp->dlist)) {
 80012a4:	002b      	movs	r3, r5
 80012a6:	3310      	adds	r3, #16
 80012a8:	4298      	cmp	r0, r3
 80012aa:	d100      	bne.n	80012ae <chSchGoSleepTimeoutS+0x3e>
 80012ac:	e09e      	b.n	80013ec <chSchGoSleepTimeoutS+0x17c>
 80012ae:	4662      	mov	r2, ip
 80012b0:	8bab      	ldrh	r3, [r5, #28]
 80012b2:	1ad3      	subs	r3, r2, r3
 80012b4:	b29b      	uxth	r3, r3
    delta    = nowdelta + delay;
 80012b6:	18cc      	adds	r4, r1, r3
 80012b8:	b2a4      	uxth	r4, r4
    if (delta < nowdelta) {
 80012ba:	42a3      	cmp	r3, r4
 80012bc:	d900      	bls.n	80012c0 <chSchGoSleepTimeoutS+0x50>
      delta = delay;
 80012be:	000c      	movs	r4, r1
    if (delta < vtlp->dlist.next->delta) {
 80012c0:	8903      	ldrh	r3, [r0, #8]
 80012c2:	42a3      	cmp	r3, r4
 80012c4:	d948      	bls.n	8001358 <chSchGoSleepTimeoutS+0xe8>
  if (delay < currdelta) {
 80012c6:	1c0a      	adds	r2, r1, #0
 80012c8:	2902      	cmp	r1, #2
 80012ca:	d200      	bcs.n	80012ce <chSchGoSleepTimeoutS+0x5e>
 80012cc:	2202      	movs	r2, #2
  return systime + (systime_t)interval;
 80012ce:	4663      	mov	r3, ip
 80012d0:	b292      	uxth	r2, r2
  STM32_ST_TIM->CCR[0] = (uint32_t)abstime;
 80012d2:	495d      	ldr	r1, [pc, #372]	@ (8001448 <chSchGoSleepTimeoutS+0x1d8>)
 80012d4:	189b      	adds	r3, r3, r2
 80012d6:	b29b      	uxth	r3, r3
 80012d8:	634b      	str	r3, [r1, #52]	@ 0x34
  return (sysinterval_t)((systime_t)(end - start));
 80012da:	4663      	mov	r3, ip
 80012dc:	468a      	mov	sl, r1
  return (systime_t)STM32_ST_TIM->CNT;
 80012de:	6a49      	ldr	r1, [r1, #36]	@ 0x24
 80012e0:	b289      	uxth	r1, r1
 80012e2:	1acb      	subs	r3, r1, r3
    if (likely(nowdelta < delay)) {
 80012e4:	b29b      	uxth	r3, r3
 80012e6:	429a      	cmp	r2, r3
 80012e8:	d800      	bhi.n	80012ec <chSchGoSleepTimeoutS+0x7c>
 80012ea:	e087      	b.n	80013fc <chSchGoSleepTimeoutS+0x18c>
                                          ch_delta_list_t *dlp,
                                          sysinterval_t delta) {

  dlp->delta      = delta;
  dlp->next       = dlhp;
  dlp->prev       = dlp->next->prev;
 80012ec:	6843      	ldr	r3, [r0, #4]
  dlp->delta      = delta;
 80012ee:	8134      	strh	r4, [r6, #8]
  dlp->prev       = dlp->next->prev;
 80012f0:	6073      	str	r3, [r6, #4]
  dlp->next       = dlhp;
 80012f2:	9000      	str	r0, [sp, #0]
  dlp->prev->next = dlp;
 80012f4:	601e      	str	r6, [r3, #0]

  /* The timer is inserted in the delta list.*/
  ch_dlist_insert_before(dlp, dlep, delta);

  /* Adjusting delta for the following element.*/
  dlp->delta -= delta;
 80012f6:	8903      	ldrh	r3, [r0, #8]
  dlhp->prev      = dlp;
 80012f8:	6046      	str	r6, [r0, #4]
  dlp->delta -= delta;
 80012fa:	1b1b      	subs	r3, r3, r4
 80012fc:	8103      	strh	r3, [r0, #8]

  /* Special case when the inserted element is in last position in the list,
     the value in the header must be restored, just doing it is faster than
     checking then doing.*/
  dlhp->delta = (sysinterval_t)-1;
 80012fe:	2301      	movs	r3, #1
 8001300:	425b      	negs	r3, r3
 8001302:	832b      	strh	r3, [r5, #24]
  otp->state = newstate;
 8001304:	2324      	movs	r3, #36	@ 0x24
 8001306:	4642      	mov	r2, r8
 8001308:	4649      	mov	r1, r9
 800130a:	54d1      	strb	r1, [r2, r3]
  pqp->next       = p->next;
 800130c:	683a      	ldr	r2, [r7, #0]
  chSysSwitch(ntp, otp);
 800130e:	4641      	mov	r1, r8
  pqp->next->prev = pqp;
 8001310:	6055      	str	r5, [r2, #4]
  pqp->next       = p->next;
 8001312:	602a      	str	r2, [r5, #0]
  ntp->state = CH_STATE_CURRENT;
 8001314:	2201      	movs	r2, #1
  chSysSwitch(ntp, otp);
 8001316:	0038      	movs	r0, r7
  ntp->state = CH_STATE_CURRENT;
 8001318:	54fa      	strb	r2, [r7, r3]
  __instance_set_currthread(oip, ntp);
 800131a:	60ef      	str	r7, [r5, #12]
  chSysSwitch(ntp, otp);
 800131c:	f7fe ff3c 	bl	8000198 <__port_switch>
 */
static inline bool chVTIsArmedI(const virtual_timer_t *vtp) {

  chDbgCheckClassI();

  return (bool)(vtp->dlist.next != NULL);
 8001320:	9b00      	ldr	r3, [sp, #0]
    virtual_timer_t vt;

    chVTDoSetI(&vt, timeout, __sch_wakeup, (void *)tp);
    chSchGoSleepS(newstate);
    if (chVTIsArmedI(&vt)) {
 8001322:	2b00      	cmp	r3, #0
 8001324:	d00c      	beq.n	8001340 <chSchGoSleepTimeoutS+0xd0>
  systime_t now;
  sysinterval_t nowdelta, delta;

  /* If the timer is not the first of the list then it is simply unlinked
     else the operation is more complex.*/
  if (!ch_dlist_isfirst(&vtlp->dlist, &vtp->dlist)) {
 8001326:	692a      	ldr	r2, [r5, #16]
 8001328:	42b2      	cmp	r2, r6
 800132a:	d026      	beq.n	800137a <chSchGoSleepTimeoutS+0x10a>
 *
 * @notapi
 */
static inline ch_delta_list_t *ch_dlist_dequeue(ch_delta_list_t *dlp) {

  dlp->prev->next = dlp->next;
 800132c:	6872      	ldr	r2, [r6, #4]
 800132e:	6013      	str	r3, [r2, #0]
  dlp->next->prev = dlp->prev;
 8001330:	605a      	str	r2, [r3, #4]

    /* Removing the element from the delta list.*/
    (void) ch_dlist_dequeue(&vtp->dlist);

    /* Adding delta to the next element, if it is not the last one.*/
    vtp->dlist.next->delta += vtp->dlist.delta;
 8001332:	8931      	ldrh	r1, [r6, #8]
 8001334:	891a      	ldrh	r2, [r3, #8]
 8001336:	1852      	adds	r2, r2, r1
 8001338:	811a      	strh	r2, [r3, #8]
    vtp->dlist.next = NULL;

    /* Special case when the removed element from the last position in the list,
       the value in the header must be restored, just doing it is faster than
       checking then doing.*/
    vtlp->dlist.delta = (sysinterval_t)-1;
 800133a:	2301      	movs	r3, #1
 800133c:	425b      	negs	r3, r3
 800133e:	832b      	strh	r3, [r5, #24]
  }
  else {
    chSchGoSleepS(newstate);
  }

  return tp->u.rdymsg;
 8001340:	4643      	mov	r3, r8
 8001342:	6a98      	ldr	r0, [r3, #40]	@ 0x28
}
 8001344:	b006      	add	sp, #24
 8001346:	bce0      	pop	{r5, r6, r7}
 8001348:	46ba      	mov	sl, r7
 800134a:	46b1      	mov	r9, r6
 800134c:	46a8      	mov	r8, r5
 800134e:	bdf0      	pop	{r4, r5, r6, r7, pc}
    dlp = dlp->next;
 8001350:	6800      	ldr	r0, [r0, #0]
    delta -= dlp->delta;
 8001352:	1ae4      	subs	r4, r4, r3
  while (likely(dlp->delta < delta)) {
 8001354:	8903      	ldrh	r3, [r0, #8]
    delta -= dlp->delta;
 8001356:	b2a4      	uxth	r4, r4
  while (likely(dlp->delta < delta)) {
 8001358:	42a3      	cmp	r3, r4
 800135a:	d3f9      	bcc.n	8001350 <chSchGoSleepTimeoutS+0xe0>
 800135c:	e7c6      	b.n	80012ec <chSchGoSleepTimeoutS+0x7c>
  otp->state = newstate;
 800135e:	2324      	movs	r3, #36	@ 0x24
 8001360:	4642      	mov	r2, r8
 8001362:	54d0      	strb	r0, [r2, r3]
  pqp->next       = p->next;
 8001364:	683a      	ldr	r2, [r7, #0]
  chSysSwitch(ntp, otp);
 8001366:	4641      	mov	r1, r8
  pqp->next->prev = pqp;
 8001368:	6055      	str	r5, [r2, #4]
  pqp->next       = p->next;
 800136a:	602a      	str	r2, [r5, #0]
  ntp->state = CH_STATE_CURRENT;
 800136c:	2201      	movs	r2, #1
  chSysSwitch(ntp, otp);
 800136e:	0038      	movs	r0, r7
  ntp->state = CH_STATE_CURRENT;
 8001370:	54fa      	strb	r2, [r7, r3]
  __instance_set_currthread(oip, ntp);
 8001372:	60ef      	str	r7, [r5, #12]
  chSysSwitch(ntp, otp);
 8001374:	f7fe ff10 	bl	8000198 <__port_switch>
}
 8001378:	e7e2      	b.n	8001340 <chSchGoSleepTimeoutS+0xd0>
  dlhp->next->prev = dlhp;
 800137a:	002a      	movs	r2, r5
    return;
  }

  /* Removing the first timer from the list, marking it as not armed.*/
  ch_dlist_remove_first(&vtlp->dlist);
  vtp->dlist.next = NULL;
 800137c:	2100      	movs	r1, #0
 800137e:	3210      	adds	r2, #16
  dlhp->next       = dlp->next;
 8001380:	612b      	str	r3, [r5, #16]
 8001382:	6031      	str	r1, [r6, #0]
  dlhp->next->prev = dlhp;
 8001384:	605a      	str	r2, [r3, #4]

  /* If the list become empty then the alarm timer is stopped and done.*/
  if (ch_dlist_isempty(&vtlp->dlist)) {
 8001386:	4293      	cmp	r3, r2
 8001388:	d051      	beq.n	800142e <chSchGoSleepTimeoutS+0x1be>

    return;
  }

  /* The delta of the removed timer is added to the new first timer.*/
  vtlp->dlist.next->delta += vtp->dlist.delta;
 800138a:	891a      	ldrh	r2, [r3, #8]
 800138c:	8931      	ldrh	r1, [r6, #8]
 800138e:	1852      	adds	r2, r2, r1
 8001390:	b292      	uxth	r2, r2
 8001392:	811a      	strh	r2, [r3, #8]
 8001394:	4b2c      	ldr	r3, [pc, #176]	@ (8001448 <chSchGoSleepTimeoutS+0x1d8>)

  /* Distance in ticks between the last alarm event and current time.*/
  now = chVTGetSystemTimeX();
  nowdelta = chTimeDiffX(vtlp->lasttime, now);
 8001396:	8ba9      	ldrh	r1, [r5, #28]
 8001398:	6a5b      	ldr	r3, [r3, #36]	@ 0x24
 800139a:	b29b      	uxth	r3, r3
 800139c:	1a58      	subs	r0, r3, r1

  /* If the current time surpassed the time of the next element in list
     then the event interrupt is already pending, just return.*/
  if (nowdelta >= vtlp->dlist.next->delta) {
 800139e:	b280      	uxth	r0, r0
 80013a0:	4282      	cmp	r2, r0
 80013a2:	d9cd      	bls.n	8001340 <chSchGoSleepTimeoutS+0xd0>
    return;
  }

  /* Distance from the next scheduled event and now.*/
  delta = vtlp->dlist.next->delta - nowdelta;
 80013a4:	1ad2      	subs	r2, r2, r3
 80013a6:	1889      	adds	r1, r1, r2
  if (delay < currdelta) {
 80013a8:	1c0a      	adds	r2, r1, #0
 80013aa:	b289      	uxth	r1, r1
 80013ac:	2902      	cmp	r1, #2
 80013ae:	d323      	bcc.n	80013f8 <chSchGoSleepTimeoutS+0x188>
 80013b0:	b292      	uxth	r2, r2
  STM32_ST_TIM->CCR[0] = (uint32_t)abstime;
 80013b2:	4825      	ldr	r0, [pc, #148]	@ (8001448 <chSchGoSleepTimeoutS+0x1d8>)
  return systime + (systime_t)interval;
 80013b4:	1899      	adds	r1, r3, r2
 80013b6:	b289      	uxth	r1, r1
 80013b8:	6341      	str	r1, [r0, #52]	@ 0x34
  return (systime_t)STM32_ST_TIM->CNT;
 80013ba:	6a41      	ldr	r1, [r0, #36]	@ 0x24
 80013bc:	b289      	uxth	r1, r1
  return (sysinterval_t)((systime_t)(end - start));
 80013be:	1acb      	subs	r3, r1, r3
    if (likely(nowdelta < delay)) {
 80013c0:	b29b      	uxth	r3, r3
 80013c2:	4293      	cmp	r3, r2
 80013c4:	d3bc      	bcc.n	8001340 <chSchGoSleepTimeoutS+0xd0>
 80013c6:	2302      	movs	r3, #2
    currdelta += (sysinterval_t)1;
 80013c8:	3301      	adds	r3, #1
 80013ca:	b29b      	uxth	r3, r3
  return systime + (systime_t)interval;
 80013cc:	18ca      	adds	r2, r1, r3
  STM32_ST_TIM->CCR[0] = (uint32_t)abstime;
 80013ce:	b292      	uxth	r2, r2
 80013d0:	6342      	str	r2, [r0, #52]	@ 0x34
  return (systime_t)STM32_ST_TIM->CNT;
 80013d2:	6a42      	ldr	r2, [r0, #36]	@ 0x24
 80013d4:	b292      	uxth	r2, r2
  return (sysinterval_t)((systime_t)(end - start));
 80013d6:	1a51      	subs	r1, r2, r1
    if (likely(nowdelta < delay)) {
 80013d8:	b289      	uxth	r1, r1
 80013da:	4299      	cmp	r1, r3
 80013dc:	d22c      	bcs.n	8001438 <chSchGoSleepTimeoutS+0x1c8>
  if (currdelta > CH_CFG_ST_TIMEDELTA) {
 80013de:	2b02      	cmp	r3, #2
 80013e0:	d9ae      	bls.n	8001340 <chSchGoSleepTimeoutS+0xd0>
 80013e2:	2201      	movs	r2, #1
 80013e4:	6b6b      	ldr	r3, [r5, #52]	@ 0x34
 80013e6:	4313      	orrs	r3, r2
 80013e8:	636b      	str	r3, [r5, #52]	@ 0x34
#else
  ch_system.rfcu.mask |= mask;
#endif

  CH_CFG_RUNTIME_FAULTS_HOOK(mask);
}
 80013ea:	e7a9      	b.n	8001340 <chSchGoSleepTimeoutS+0xd0>
      vt_insert_first(vtlp, vtp, now, delay);
 80013ec:	000a      	movs	r2, r1
 80013ee:	0030      	movs	r0, r6
 80013f0:	4661      	mov	r1, ip
 80013f2:	f7ff fefd 	bl	80011f0 <vt_insert_first.constprop.0>
      return;
 80013f6:	e785      	b.n	8001304 <chSchGoSleepTimeoutS+0x94>
  if (delay < currdelta) {
 80013f8:	2202      	movs	r2, #2
 80013fa:	e7d9      	b.n	80013b0 <chSchGoSleepTimeoutS+0x140>
    if (likely(nowdelta < delay)) {
 80013fc:	2302      	movs	r3, #2
 80013fe:	469c      	mov	ip, r3
    currdelta += (sysinterval_t)1;
 8001400:	4663      	mov	r3, ip
 8001402:	3301      	adds	r3, #1
 8001404:	b29b      	uxth	r3, r3
  return systime + (systime_t)interval;
 8001406:	185a      	adds	r2, r3, r1
 8001408:	469c      	mov	ip, r3
  STM32_ST_TIM->CCR[0] = (uint32_t)abstime;
 800140a:	4653      	mov	r3, sl
 800140c:	b292      	uxth	r2, r2
 800140e:	635a      	str	r2, [r3, #52]	@ 0x34
  return (systime_t)STM32_ST_TIM->CNT;
 8001410:	6a5a      	ldr	r2, [r3, #36]	@ 0x24
 8001412:	b292      	uxth	r2, r2
  return (sysinterval_t)((systime_t)(end - start));
 8001414:	1a51      	subs	r1, r2, r1
    if (likely(nowdelta < delay)) {
 8001416:	b289      	uxth	r1, r1
 8001418:	4561      	cmp	r1, ip
 800141a:	d20b      	bcs.n	8001434 <chSchGoSleepTimeoutS+0x1c4>
  if (currdelta > CH_CFG_ST_TIMEDELTA) {
 800141c:	4663      	mov	r3, ip
 800141e:	2b02      	cmp	r3, #2
 8001420:	d800      	bhi.n	8001424 <chSchGoSleepTimeoutS+0x1b4>
 8001422:	e763      	b.n	80012ec <chSchGoSleepTimeoutS+0x7c>
  currcore->rfcu.mask |= mask;
 8001424:	2201      	movs	r2, #1
 8001426:	6b6b      	ldr	r3, [r5, #52]	@ 0x34
 8001428:	4313      	orrs	r3, r2
 800142a:	636b      	str	r3, [r5, #52]	@ 0x34
}
 800142c:	e75e      	b.n	80012ec <chSchGoSleepTimeoutS+0x7c>
  STM32_ST_TIM->DIER = 0U;
 800142e:	4b06      	ldr	r3, [pc, #24]	@ (8001448 <chSchGoSleepTimeoutS+0x1d8>)
 8001430:	60d9      	str	r1, [r3, #12]
 * @api
 */
void stStopAlarm(void) {

  st_lld_stop_alarm();
}
 8001432:	e785      	b.n	8001340 <chSchGoSleepTimeoutS+0xd0>
 8001434:	0011      	movs	r1, r2
 8001436:	e7e3      	b.n	8001400 <chSchGoSleepTimeoutS+0x190>
 8001438:	0011      	movs	r1, r2
 800143a:	e7c5      	b.n	80013c8 <chSchGoSleepTimeoutS+0x158>
 800143c:	200010b0 	.word	0x200010b0
 8001440:	0000ffff 	.word	0x0000ffff
 8001444:	08000fa1 	.word	0x08000fa1
 8001448:	40014800 	.word	0x40014800
 800144c:	00000000 	.word	0x00000000

08001450 <obqPutTimeout>:
                    sysinterval_t timeout) {
 8001450:	b5f8      	push	{r3, r4, r5, r6, r7, lr}
 8001452:	0004      	movs	r4, r0
 8001454:	000e      	movs	r6, r1
 8001456:	0015      	movs	r5, r2
  __ASM volatile ("cpsid i" : : : "memory");
 8001458:	b672      	cpsid	i
  if (obqp->ptr == NULL) {
 800145a:	6a83      	ldr	r3, [r0, #40]	@ 0x28
 800145c:	2b00      	cmp	r3, #0
 800145e:	d01e      	beq.n	800149e <obqPutTimeout+0x4e>
  *obqp->ptr = b;
 8001460:	701e      	strb	r6, [r3, #0]
  obqp->ptr++;
 8001462:	6aa3      	ldr	r3, [r4, #40]	@ 0x28
  if (obqp->ptr >= obqp->top) {
 8001464:	6ae2      	ldr	r2, [r4, #44]	@ 0x2c
  obqp->ptr++;
 8001466:	3301      	adds	r3, #1
 8001468:	62a3      	str	r3, [r4, #40]	@ 0x28
  if (obqp->ptr >= obqp->top) {
 800146a:	4293      	cmp	r3, r2
 800146c:	d202      	bcs.n	8001474 <obqPutTimeout+0x24>
  __ASM volatile ("cpsie i" : : : "memory");
 800146e:	b662      	cpsie	i
  return MSG_OK;
 8001470:	2000      	movs	r0, #0
}
 8001472:	bdf8      	pop	{r3, r4, r5, r6, r7, pc}
    obqPostFullBufferS(obqp, obqp->bsize - sizeof (size_t));
 8001474:	69e2      	ldr	r2, [r4, #28]
  *((size_t *)(void *)obqp->bwrptr) = size;
 8001476:	6923      	ldr	r3, [r4, #16]
    obqPostFullBufferS(obqp, obqp->bsize - sizeof (size_t));
 8001478:	3a04      	subs	r2, #4
  *((size_t *)(void *)obqp->bwrptr) = size;
 800147a:	601a      	str	r2, [r3, #0]
  obqp->bcounter--;
 800147c:	68e2      	ldr	r2, [r4, #12]
 800147e:	3a01      	subs	r2, #1
 8001480:	60e2      	str	r2, [r4, #12]
  obqp->bwrptr += obqp->bsize;
 8001482:	69e2      	ldr	r2, [r4, #28]
 8001484:	189b      	adds	r3, r3, r2
  if (obqp->bwrptr >= obqp->btop) {
 8001486:	69a2      	ldr	r2, [r4, #24]
  obqp->bwrptr += obqp->bsize;
 8001488:	6123      	str	r3, [r4, #16]
  if (obqp->bwrptr >= obqp->btop) {
 800148a:	4293      	cmp	r3, r2
 800148c:	d22e      	bcs.n	80014ec <obqPutTimeout+0x9c>
  obqp->ptr = NULL;
 800148e:	2300      	movs	r3, #0
 8001490:	62a3      	str	r3, [r4, #40]	@ 0x28
  if (obqp->notify != NULL) {
 8001492:	6b23      	ldr	r3, [r4, #48]	@ 0x30
 8001494:	2b00      	cmp	r3, #0
 8001496:	d0ea      	beq.n	800146e <obqPutTimeout+0x1e>
    obqp->notify(obqp);
 8001498:	0020      	movs	r0, r4
 800149a:	4798      	blx	r3
 800149c:	e7e7      	b.n	800146e <obqPutTimeout+0x1e>
  while (obqIsFullI(obqp)) {
 800149e:	68c3      	ldr	r3, [r0, #12]
 80014a0:	2b00      	cmp	r3, #0
 80014a2:	d11c      	bne.n	80014de <obqPutTimeout+0x8e>
    if (obqp->suspended) {
 80014a4:	7a23      	ldrb	r3, [r4, #8]
 80014a6:	2b00      	cmp	r3, #0
 80014a8:	d123      	bne.n	80014f2 <obqPutTimeout+0xa2>
  return __sch_get_currthread();
 80014aa:	4f13      	ldr	r7, [pc, #76]	@ (80014f8 <obqPutTimeout+0xa8>)
 80014ac:	68fb      	ldr	r3, [r7, #12]
  if (unlikely(TIME_IMMEDIATE == timeout)) {
 80014ae:	2d00      	cmp	r5, #0
 80014b0:	d107      	bne.n	80014c2 <obqPutTimeout+0x72>
      return msg;
 80014b2:	2001      	movs	r0, #1
 80014b4:	4240      	negs	r0, r0
 80014b6:	b662      	cpsie	i
      return msg;
 80014b8:	e7db      	b.n	8001472 <obqPutTimeout+0x22>
    if (obqp->suspended) {
 80014ba:	7a23      	ldrb	r3, [r4, #8]
 80014bc:	2b00      	cmp	r3, #0
 80014be:	d118      	bne.n	80014f2 <obqPutTimeout+0xa2>
 80014c0:	68fb      	ldr	r3, [r7, #12]
  p->prev       = qp->prev;
 80014c2:	6862      	ldr	r2, [r4, #4]
  p->next       = qp;
 80014c4:	601c      	str	r4, [r3, #0]
  p->prev       = qp->prev;
 80014c6:	605a      	str	r2, [r3, #4]
  return chSchGoSleepTimeoutS(CH_STATE_QUEUED, timeout);
 80014c8:	0029      	movs	r1, r5
  p->prev->next = p;
 80014ca:	6013      	str	r3, [r2, #0]
 80014cc:	2004      	movs	r0, #4
  qp->prev      = p;
 80014ce:	6063      	str	r3, [r4, #4]
 80014d0:	f7ff fece 	bl	8001270 <chSchGoSleepTimeoutS>
    if (msg < MSG_OK) {
 80014d4:	2800      	cmp	r0, #0
 80014d6:	dbee      	blt.n	80014b6 <obqPutTimeout+0x66>
  while (obqIsFullI(obqp)) {
 80014d8:	68e3      	ldr	r3, [r4, #12]
 80014da:	2b00      	cmp	r3, #0
 80014dc:	d0ed      	beq.n	80014ba <obqPutTimeout+0x6a>
  obqp->ptr = obqp->bwrptr + sizeof (size_t);
 80014de:	6922      	ldr	r2, [r4, #16]
  obqp->top = obqp->bwrptr + obqp->bsize;
 80014e0:	69e1      	ldr	r1, [r4, #28]
  obqp->ptr = obqp->bwrptr + sizeof (size_t);
 80014e2:	1d13      	adds	r3, r2, #4
  obqp->top = obqp->bwrptr + obqp->bsize;
 80014e4:	1852      	adds	r2, r2, r1
  obqp->ptr = obqp->bwrptr + sizeof (size_t);
 80014e6:	62a3      	str	r3, [r4, #40]	@ 0x28
  obqp->top = obqp->bwrptr + obqp->bsize;
 80014e8:	62e2      	str	r2, [r4, #44]	@ 0x2c
    if (msg != MSG_OK) {
 80014ea:	e7b9      	b.n	8001460 <obqPutTimeout+0x10>
    obqp->bwrptr = obqp->buffers;
 80014ec:	6a63      	ldr	r3, [r4, #36]	@ 0x24
 80014ee:	6123      	str	r3, [r4, #16]
 80014f0:	e7cd      	b.n	800148e <obqPutTimeout+0x3e>
      return MSG_RESET;
 80014f2:	2002      	movs	r0, #2
 80014f4:	4240      	negs	r0, r0
 80014f6:	e7de      	b.n	80014b6 <obqPutTimeout+0x66>
 80014f8:	200010b0 	.word	0x200010b0
 80014fc:	00000000 	.word	0x00000000

08001500 <_put.lto_priv.1>:
static msg_t _put(void *ip, uint8_t b) {
 8001500:	b510      	push	{r4, lr}
  return obqPutTimeout(&((SerialUSBDriver *)ip)->obqueue, b, TIME_INFINITE);
 8001502:	4a02      	ldr	r2, [pc, #8]	@ (800150c <_put.lto_priv.1+0xc>)
 8001504:	3044      	adds	r0, #68	@ 0x44
 8001506:	f7ff ffa3 	bl	8001450 <obqPutTimeout>
}
 800150a:	bd10      	pop	{r4, pc}
 800150c:	0000ffff 	.word	0x0000ffff

08001510 <_putt.lto_priv.1>:
static msg_t _putt(void *ip, uint8_t b, sysinterval_t timeout) {
 8001510:	b510      	push	{r4, lr}
  return obqPutTimeout(&((SerialUSBDriver *)ip)->obqueue, b, timeout);
 8001512:	3044      	adds	r0, #68	@ 0x44
 8001514:	f7ff ff9c 	bl	8001450 <obqPutTimeout>
}
 8001518:	bd10      	pop	{r4, pc}
 800151a:	46c0      	nop			@ (mov r8, r8)
 800151c:	0000      	movs	r0, r0
	...

08001520 <ibqGetTimeout>:
msg_t ibqGetTimeout(input_buffers_queue_t *ibqp, sysinterval_t timeout) {
 8001520:	b5f8      	push	{r3, r4, r5, r6, r7, lr}
 8001522:	0004      	movs	r4, r0
 8001524:	000e      	movs	r6, r1
  __ASM volatile ("cpsid i" : : : "memory");
 8001526:	b672      	cpsid	i
  if (ibqp->ptr == NULL) {
 8001528:	6a83      	ldr	r3, [r0, #40]	@ 0x28
 800152a:	2b00      	cmp	r3, #0
 800152c:	d01a      	beq.n	8001564 <ibqGetTimeout+0x44>
  if (ibqp->ptr >= ibqp->top) {
 800152e:	6ac2      	ldr	r2, [r0, #44]	@ 0x2c
  msg = (msg_t)*ibqp->ptr;
 8001530:	781d      	ldrb	r5, [r3, #0]
  ibqp->ptr++;
 8001532:	3301      	adds	r3, #1
 8001534:	62a3      	str	r3, [r4, #40]	@ 0x28
  if (ibqp->ptr >= ibqp->top) {
 8001536:	4293      	cmp	r3, r2
 8001538:	d202      	bcs.n	8001540 <ibqGetTimeout+0x20>
  __ASM volatile ("cpsie i" : : : "memory");
 800153a:	b662      	cpsie	i
}
 800153c:	0028      	movs	r0, r5
 800153e:	bdf8      	pop	{r3, r4, r5, r6, r7, pc}
  ibqp->bcounter--;
 8001540:	68e3      	ldr	r3, [r4, #12]
  ibqp->brdptr += ibqp->bsize;
 8001542:	69e2      	ldr	r2, [r4, #28]
  ibqp->bcounter--;
 8001544:	3b01      	subs	r3, #1
 8001546:	60e3      	str	r3, [r4, #12]
  ibqp->brdptr += ibqp->bsize;
 8001548:	6963      	ldr	r3, [r4, #20]
 800154a:	189b      	adds	r3, r3, r2
  if (ibqp->brdptr >= ibqp->btop) {
 800154c:	69a2      	ldr	r2, [r4, #24]
  ibqp->brdptr += ibqp->bsize;
 800154e:	6163      	str	r3, [r4, #20]
  if (ibqp->brdptr >= ibqp->btop) {
 8001550:	4293      	cmp	r3, r2
 8001552:	d22d      	bcs.n	80015b0 <ibqGetTimeout+0x90>
  ibqp->ptr = NULL;
 8001554:	2300      	movs	r3, #0
 8001556:	62a3      	str	r3, [r4, #40]	@ 0x28
  if (ibqp->notify != NULL) {
 8001558:	6b23      	ldr	r3, [r4, #48]	@ 0x30
 800155a:	2b00      	cmp	r3, #0
 800155c:	d0ed      	beq.n	800153a <ibqGetTimeout+0x1a>
    ibqp->notify(ibqp);
 800155e:	0020      	movs	r0, r4
 8001560:	4798      	blx	r3
 8001562:	e7ea      	b.n	800153a <ibqGetTimeout+0x1a>
  while (ibqIsEmptyI(ibqp)) {
 8001564:	68c3      	ldr	r3, [r0, #12]
 8001566:	2b00      	cmp	r3, #0
 8001568:	d11b      	bne.n	80015a2 <ibqGetTimeout+0x82>
    if (ibqp->suspended) {
 800156a:	7a23      	ldrb	r3, [r4, #8]
 800156c:	2b00      	cmp	r3, #0
 800156e:	d122      	bne.n	80015b6 <ibqGetTimeout+0x96>
 8001570:	4f12      	ldr	r7, [pc, #72]	@ (80015bc <ibqGetTimeout+0x9c>)
 8001572:	68fb      	ldr	r3, [r7, #12]
  if (unlikely(TIME_IMMEDIATE == timeout)) {
 8001574:	2e00      	cmp	r6, #0
 8001576:	d106      	bne.n	8001586 <ibqGetTimeout+0x66>
       return msg;
 8001578:	2501      	movs	r5, #1
 800157a:	426d      	negs	r5, r5
 800157c:	e7dd      	b.n	800153a <ibqGetTimeout+0x1a>
    if (ibqp->suspended) {
 800157e:	7a23      	ldrb	r3, [r4, #8]
 8001580:	2b00      	cmp	r3, #0
 8001582:	d118      	bne.n	80015b6 <ibqGetTimeout+0x96>
 8001584:	68fb      	ldr	r3, [r7, #12]
  p->prev       = qp->prev;
 8001586:	6862      	ldr	r2, [r4, #4]
  p->next       = qp;
 8001588:	601c      	str	r4, [r3, #0]
  p->prev       = qp->prev;
 800158a:	605a      	str	r2, [r3, #4]
  return chSchGoSleepTimeoutS(CH_STATE_QUEUED, timeout);
 800158c:	0031      	movs	r1, r6
  p->prev->next = p;
 800158e:	6013      	str	r3, [r2, #0]
 8001590:	2004      	movs	r0, #4
  qp->prev      = p;
 8001592:	6063      	str	r3, [r4, #4]
 8001594:	f7ff fe6c 	bl	8001270 <chSchGoSleepTimeoutS>
 8001598:	1e05      	subs	r5, r0, #0
    if (msg < MSG_OK) {
 800159a:	dbce      	blt.n	800153a <ibqGetTimeout+0x1a>
  while (ibqIsEmptyI(ibqp)) {
 800159c:	68e3      	ldr	r3, [r4, #12]
 800159e:	2b00      	cmp	r3, #0
 80015a0:	d0ed      	beq.n	800157e <ibqGetTimeout+0x5e>
  ibqp->ptr = ibqp->brdptr + sizeof (size_t);
 80015a2:	6962      	ldr	r2, [r4, #20]
 80015a4:	1d13      	adds	r3, r2, #4
  ibqp->top = ibqp->ptr + *((size_t *)(void *)ibqp->brdptr);
 80015a6:	6812      	ldr	r2, [r2, #0]
  ibqp->ptr = ibqp->brdptr + sizeof (size_t);
 80015a8:	62a3      	str	r3, [r4, #40]	@ 0x28
  ibqp->top = ibqp->ptr + *((size_t *)(void *)ibqp->brdptr);
 80015aa:	189a      	adds	r2, r3, r2
 80015ac:	62e2      	str	r2, [r4, #44]	@ 0x2c
    if (msg != MSG_OK) {
 80015ae:	e7bf      	b.n	8001530 <ibqGetTimeout+0x10>
    ibqp->brdptr = ibqp->buffers;
 80015b0:	6a63      	ldr	r3, [r4, #36]	@ 0x24
 80015b2:	6163      	str	r3, [r4, #20]
 80015b4:	e7ce      	b.n	8001554 <ibqGetTimeout+0x34>
      return MSG_RESET;
 80015b6:	2502      	movs	r5, #2
 80015b8:	426d      	negs	r5, r5
 80015ba:	e7be      	b.n	800153a <ibqGetTimeout+0x1a>
 80015bc:	200010b0 	.word	0x200010b0

080015c0 <_get.lto_priv.1>:
static msg_t _get(void *ip) {
 80015c0:	b510      	push	{r4, lr}
  return ibqGetTimeout(&((SerialUSBDriver *)ip)->ibqueue, TIME_INFINITE);
 80015c2:	4902      	ldr	r1, [pc, #8]	@ (80015cc <_get.lto_priv.1+0xc>)
 80015c4:	300c      	adds	r0, #12
 80015c6:	f7ff ffab 	bl	8001520 <ibqGetTimeout>
}
 80015ca:	bd10      	pop	{r4, pc}
 80015cc:	0000ffff 	.word	0x0000ffff

080015d0 <_gett.lto_priv.1>:
static msg_t _gett(void *ip, sysinterval_t timeout) {
 80015d0:	b510      	push	{r4, lr}
  return ibqGetTimeout(&((SerialUSBDriver *)ip)->ibqueue, timeout);
 80015d2:	300c      	adds	r0, #12
 80015d4:	f7ff ffa4 	bl	8001520 <ibqGetTimeout>
}
 80015d8:	bd10      	pop	{r4, pc}
 80015da:	46c0      	nop			@ (mov r8, r8)
 80015dc:	0000      	movs	r0, r0
	...

080015e0 <ibqReadTimeout>:
                      size_t n, sysinterval_t timeout) {
 80015e0:	b5f8      	push	{r3, r4, r5, r6, r7, lr}
 80015e2:	46de      	mov	lr, fp
 80015e4:	464e      	mov	r6, r9
 80015e6:	4645      	mov	r5, r8
 80015e8:	4657      	mov	r7, sl
 80015ea:	0004      	movs	r4, r0
 80015ec:	b5e0      	push	{r5, r6, r7, lr}
 80015ee:	4693      	mov	fp, r2
 80015f0:	000e      	movs	r6, r1
 80015f2:	4698      	mov	r8, r3
  __ASM volatile ("cpsid i" : : : "memory");
 80015f4:	b672      	cpsid	i
 80015f6:	4b38      	ldr	r3, [pc, #224]	@ (80016d8 <ibqReadTimeout+0xf8>)
  size_t r = 0;
 80015f8:	2500      	movs	r5, #0
 80015fa:	4699      	mov	r9, r3
  ibqp->ptr = NULL;
 80015fc:	2300      	movs	r3, #0
 80015fe:	469a      	mov	sl, r3
}
 8001600:	e00f      	b.n	8001622 <ibqReadTimeout+0x42>
      memcpy(bp, ibqp->ptr, BUFFERS_CHUNKS_SIZE);
 8001602:	2240      	movs	r2, #64	@ 0x40
 8001604:	0030      	movs	r0, r6
 8001606:	f7fe fe3d 	bl	8000284 <memcpy>
      ibqp->ptr += (size_t)BUFFERS_CHUNKS_SIZE;
 800160a:	6aa3      	ldr	r3, [r4, #40]	@ 0x28
    if (ibqp->ptr >= ibqp->top) {
 800160c:	6ae2      	ldr	r2, [r4, #44]	@ 0x2c
      ibqp->ptr += (size_t)BUFFERS_CHUNKS_SIZE;
 800160e:	3340      	adds	r3, #64	@ 0x40
      bp        += (size_t)BUFFERS_CHUNKS_SIZE;
 8001610:	3640      	adds	r6, #64	@ 0x40
      r         += (size_t)BUFFERS_CHUNKS_SIZE;
 8001612:	3540      	adds	r5, #64	@ 0x40
      ibqp->ptr += (size_t)BUFFERS_CHUNKS_SIZE;
 8001614:	62a3      	str	r3, [r4, #40]	@ 0x28
    if (ibqp->ptr >= ibqp->top) {
 8001616:	429a      	cmp	r2, r3
 8001618:	d91b      	bls.n	8001652 <ibqReadTimeout+0x72>
  __ASM volatile ("cpsie i" : : : "memory");
 800161a:	b662      	cpsie	i
    if (r >= n) {
 800161c:	455d      	cmp	r5, fp
 800161e:	d253      	bcs.n	80016c8 <ibqReadTimeout+0xe8>
  __ASM volatile ("cpsid i" : : : "memory");
 8001620:	b672      	cpsid	i
    if (ibqp->ptr == NULL) {
 8001622:	6aa1      	ldr	r1, [r4, #40]	@ 0x28
 8001624:	2900      	cmp	r1, #0
 8001626:	d028      	beq.n	800167a <ibqReadTimeout+0x9a>
    size = (size_t)ibqp->top - (size_t)ibqp->ptr;
 8001628:	6ae3      	ldr	r3, [r4, #44]	@ 0x2c
    if (size > (n - r)) {
 800162a:	465a      	mov	r2, fp
    size = (size_t)ibqp->top - (size_t)ibqp->ptr;
 800162c:	1a5b      	subs	r3, r3, r1
    if (size > (n - r)) {
 800162e:	1b57      	subs	r7, r2, r5
 8001630:	429f      	cmp	r7, r3
 8001632:	d900      	bls.n	8001636 <ibqReadTimeout+0x56>
 8001634:	001f      	movs	r7, r3
    if (size > (size_t)BUFFERS_CHUNKS_SIZE) {
 8001636:	2f40      	cmp	r7, #64	@ 0x40
 8001638:	d8e3      	bhi.n	8001602 <ibqReadTimeout+0x22>
      memcpy(bp, ibqp->ptr, size);
 800163a:	003a      	movs	r2, r7
 800163c:	0030      	movs	r0, r6
 800163e:	f7fe fe21 	bl	8000284 <memcpy>
      ibqp->ptr += size;
 8001642:	6aa3      	ldr	r3, [r4, #40]	@ 0x28
    if (ibqp->ptr >= ibqp->top) {
 8001644:	6ae2      	ldr	r2, [r4, #44]	@ 0x2c
      ibqp->ptr += size;
 8001646:	19db      	adds	r3, r3, r7
      bp        += size;
 8001648:	19f6      	adds	r6, r6, r7
      r         += size;
 800164a:	19ed      	adds	r5, r5, r7
      ibqp->ptr += (size_t)BUFFERS_CHUNKS_SIZE;
 800164c:	62a3      	str	r3, [r4, #40]	@ 0x28
    if (ibqp->ptr >= ibqp->top) {
 800164e:	429a      	cmp	r2, r3
 8001650:	d8e3      	bhi.n	800161a <ibqReadTimeout+0x3a>
  ibqp->bcounter--;
 8001652:	68e3      	ldr	r3, [r4, #12]
  ibqp->brdptr += ibqp->bsize;
 8001654:	69e2      	ldr	r2, [r4, #28]
  ibqp->bcounter--;
 8001656:	3b01      	subs	r3, #1
 8001658:	60e3      	str	r3, [r4, #12]
  ibqp->brdptr += ibqp->bsize;
 800165a:	6963      	ldr	r3, [r4, #20]
 800165c:	189b      	adds	r3, r3, r2
  if (ibqp->brdptr >= ibqp->btop) {
 800165e:	69a2      	ldr	r2, [r4, #24]
  ibqp->brdptr += ibqp->bsize;
 8001660:	6163      	str	r3, [r4, #20]
  if (ibqp->brdptr >= ibqp->btop) {
 8001662:	4293      	cmp	r3, r2
 8001664:	d301      	bcc.n	800166a <ibqReadTimeout+0x8a>
    ibqp->brdptr = ibqp->buffers;
 8001666:	6a63      	ldr	r3, [r4, #36]	@ 0x24
 8001668:	6163      	str	r3, [r4, #20]
  ibqp->ptr = NULL;
 800166a:	4653      	mov	r3, sl
 800166c:	62a3      	str	r3, [r4, #40]	@ 0x28
  if (ibqp->notify != NULL) {
 800166e:	6b23      	ldr	r3, [r4, #48]	@ 0x30
 8001670:	2b00      	cmp	r3, #0
 8001672:	d0d2      	beq.n	800161a <ibqReadTimeout+0x3a>
    ibqp->notify(ibqp);
 8001674:	0020      	movs	r0, r4
 8001676:	4798      	blx	r3
 8001678:	e7cf      	b.n	800161a <ibqReadTimeout+0x3a>
  while (ibqIsEmptyI(ibqp)) {
 800167a:	68e3      	ldr	r3, [r4, #12]
 800167c:	2b00      	cmp	r3, #0
 800167e:	d11b      	bne.n	80016b8 <ibqReadTimeout+0xd8>
    if (ibqp->suspended) {
 8001680:	7a23      	ldrb	r3, [r4, #8]
 8001682:	2b00      	cmp	r3, #0
 8001684:	d11f      	bne.n	80016c6 <ibqReadTimeout+0xe6>
 8001686:	464b      	mov	r3, r9
 8001688:	68d8      	ldr	r0, [r3, #12]
  if (unlikely(TIME_IMMEDIATE == timeout)) {
 800168a:	4643      	mov	r3, r8
 800168c:	2b00      	cmp	r3, #0
 800168e:	d105      	bne.n	800169c <ibqReadTimeout+0xbc>
 8001690:	e019      	b.n	80016c6 <ibqReadTimeout+0xe6>
 8001692:	7a23      	ldrb	r3, [r4, #8]
 8001694:	2b00      	cmp	r3, #0
 8001696:	d116      	bne.n	80016c6 <ibqReadTimeout+0xe6>
 8001698:	464b      	mov	r3, r9
 800169a:	68d8      	ldr	r0, [r3, #12]
  p->prev       = qp->prev;
 800169c:	6863      	ldr	r3, [r4, #4]
  p->next       = qp;
 800169e:	6004      	str	r4, [r0, #0]
  p->prev       = qp->prev;
 80016a0:	6043      	str	r3, [r0, #4]
  return chSchGoSleepTimeoutS(CH_STATE_QUEUED, timeout);
 80016a2:	4641      	mov	r1, r8
  p->prev->next = p;
 80016a4:	6018      	str	r0, [r3, #0]
  qp->prev      = p;
 80016a6:	6060      	str	r0, [r4, #4]
 80016a8:	2004      	movs	r0, #4
 80016aa:	f7ff fde1 	bl	8001270 <chSchGoSleepTimeoutS>
    if (msg < MSG_OK) {
 80016ae:	2800      	cmp	r0, #0
 80016b0:	db09      	blt.n	80016c6 <ibqReadTimeout+0xe6>
  while (ibqIsEmptyI(ibqp)) {
 80016b2:	68e3      	ldr	r3, [r4, #12]
 80016b4:	2b00      	cmp	r3, #0
 80016b6:	d0ec      	beq.n	8001692 <ibqReadTimeout+0xb2>
  ibqp->ptr = ibqp->brdptr + sizeof (size_t);
 80016b8:	6963      	ldr	r3, [r4, #20]
 80016ba:	1d19      	adds	r1, r3, #4
  ibqp->top = ibqp->ptr + *((size_t *)(void *)ibqp->brdptr);
 80016bc:	681b      	ldr	r3, [r3, #0]
  ibqp->ptr = ibqp->brdptr + sizeof (size_t);
 80016be:	62a1      	str	r1, [r4, #40]	@ 0x28
  ibqp->top = ibqp->ptr + *((size_t *)(void *)ibqp->brdptr);
 80016c0:	18cb      	adds	r3, r1, r3
 80016c2:	62e3      	str	r3, [r4, #44]	@ 0x2c
      if (msg != MSG_OK) {
 80016c4:	e7b1      	b.n	800162a <ibqReadTimeout+0x4a>
  __ASM volatile ("cpsie i" : : : "memory");
 80016c6:	b662      	cpsie	i
}
 80016c8:	0028      	movs	r0, r5
 80016ca:	bcf0      	pop	{r4, r5, r6, r7}
 80016cc:	46bb      	mov	fp, r7
 80016ce:	46b2      	mov	sl, r6
 80016d0:	46a9      	mov	r9, r5
 80016d2:	46a0      	mov	r8, r4
 80016d4:	bdf8      	pop	{r3, r4, r5, r6, r7, pc}
 80016d6:	46c0      	nop			@ (mov r8, r8)
 80016d8:	200010b0 	.word	0x200010b0
 80016dc:	00000000 	.word	0x00000000

080016e0 <_read.lto_priv.1>:
static size_t _read(void *ip, uint8_t *bp, size_t n) {
 80016e0:	b510      	push	{r4, lr}
  return ibqReadTimeout(&((SerialUSBDriver *)ip)->ibqueue, bp,
 80016e2:	4b02      	ldr	r3, [pc, #8]	@ (80016ec <_read.lto_priv.1+0xc>)
 80016e4:	300c      	adds	r0, #12
 80016e6:	f7ff ff7b 	bl	80015e0 <ibqReadTimeout>
}
 80016ea:	bd10      	pop	{r4, pc}
 80016ec:	0000ffff 	.word	0x0000ffff

080016f0 <_readt.lto_priv.1>:
                     sysinterval_t timeout) {
 80016f0:	b510      	push	{r4, lr}
  return ibqReadTimeout(&((SerialUSBDriver *)ip)->ibqueue, bp, n, timeout);
 80016f2:	300c      	adds	r0, #12
 80016f4:	f7ff ff74 	bl	80015e0 <ibqReadTimeout>
}
 80016f8:	bd10      	pop	{r4, pc}
 80016fa:	46c0      	nop			@ (mov r8, r8)
 80016fc:	0000      	movs	r0, r0
	...

08001700 <obqWriteTimeout>:
                       size_t n, sysinterval_t timeout) {
 8001700:	b5f8      	push	{r3, r4, r5, r6, r7, lr}
 8001702:	46de      	mov	lr, fp
 8001704:	464e      	mov	r6, r9
 8001706:	4645      	mov	r5, r8
 8001708:	4657      	mov	r7, sl
 800170a:	0004      	movs	r4, r0
 800170c:	b5e0      	push	{r5, r6, r7, lr}
 800170e:	4693      	mov	fp, r2
 8001710:	000e      	movs	r6, r1
 8001712:	4698      	mov	r8, r3
  __ASM volatile ("cpsid i" : : : "memory");
 8001714:	b672      	cpsid	i
 8001716:	4b39      	ldr	r3, [pc, #228]	@ (80017fc <obqWriteTimeout+0xfc>)
  size_t w = 0;
 8001718:	2500      	movs	r5, #0
 800171a:	4699      	mov	r9, r3
  obqp->ptr = NULL;
 800171c:	2300      	movs	r3, #0
 800171e:	469a      	mov	sl, r3
 8001720:	e00f      	b.n	8001742 <obqWriteTimeout+0x42>
      memcpy(obqp->ptr, bp, (size_t)BUFFERS_CHUNKS_SIZE);
 8001722:	2240      	movs	r2, #64	@ 0x40
 8001724:	0031      	movs	r1, r6
 8001726:	f7fe fdad 	bl	8000284 <memcpy>
      obqp->ptr += (size_t)BUFFERS_CHUNKS_SIZE;
 800172a:	6aa3      	ldr	r3, [r4, #40]	@ 0x28
    if (obqp->ptr >= obqp->top) {
 800172c:	6ae2      	ldr	r2, [r4, #44]	@ 0x2c
      obqp->ptr += (size_t)BUFFERS_CHUNKS_SIZE;
 800172e:	3340      	adds	r3, #64	@ 0x40
      bp        += (size_t)BUFFERS_CHUNKS_SIZE;
 8001730:	3640      	adds	r6, #64	@ 0x40
      w         += (size_t)BUFFERS_CHUNKS_SIZE;
 8001732:	3540      	adds	r5, #64	@ 0x40
      obqp->ptr += (size_t)BUFFERS_CHUNKS_SIZE;
 8001734:	62a3      	str	r3, [r4, #40]	@ 0x28
    if (obqp->ptr >= obqp->top) {
 8001736:	429a      	cmp	r2, r3
 8001738:	d91b      	bls.n	8001772 <obqWriteTimeout+0x72>
  __ASM volatile ("cpsie i" : : : "memory");
 800173a:	b662      	cpsie	i
    if (w >= n) {
 800173c:	455d      	cmp	r5, fp
 800173e:	d256      	bcs.n	80017ee <obqWriteTimeout+0xee>
  __ASM volatile ("cpsid i" : : : "memory");
 8001740:	b672      	cpsid	i
    if (obqp->ptr == NULL) {
 8001742:	6aa0      	ldr	r0, [r4, #40]	@ 0x28
 8001744:	2800      	cmp	r0, #0
 8001746:	d02b      	beq.n	80017a0 <obqWriteTimeout+0xa0>
    size = (size_t)obqp->top - (size_t)obqp->ptr;
 8001748:	6ae3      	ldr	r3, [r4, #44]	@ 0x2c
    if (size > (n - w)) {
 800174a:	465a      	mov	r2, fp
    size = (size_t)obqp->top - (size_t)obqp->ptr;
 800174c:	1a1b      	subs	r3, r3, r0
    if (size > (n - w)) {
 800174e:	1b57      	subs	r7, r2, r5
 8001750:	429f      	cmp	r7, r3
 8001752:	d900      	bls.n	8001756 <obqWriteTimeout+0x56>
 8001754:	001f      	movs	r7, r3
    if (size > (size_t)BUFFERS_CHUNKS_SIZE) {
 8001756:	2f40      	cmp	r7, #64	@ 0x40
 8001758:	d8e3      	bhi.n	8001722 <obqWriteTimeout+0x22>
      memcpy(obqp->ptr, bp, size);
 800175a:	003a      	movs	r2, r7
 800175c:	0031      	movs	r1, r6
 800175e:	f7fe fd91 	bl	8000284 <memcpy>
      obqp->ptr += size;
 8001762:	6aa3      	ldr	r3, [r4, #40]	@ 0x28
    if (obqp->ptr >= obqp->top) {
 8001764:	6ae2      	ldr	r2, [r4, #44]	@ 0x2c
      obqp->ptr += size;
 8001766:	19db      	adds	r3, r3, r7
      bp        += size;
 8001768:	19f6      	adds	r6, r6, r7
      w         += size;
 800176a:	19ed      	adds	r5, r5, r7
      obqp->ptr += (size_t)BUFFERS_CHUNKS_SIZE;
 800176c:	62a3      	str	r3, [r4, #40]	@ 0x28
    if (obqp->ptr >= obqp->top) {
 800176e:	429a      	cmp	r2, r3
 8001770:	d8e3      	bhi.n	800173a <obqWriteTimeout+0x3a>
      obqPostFullBufferS(obqp, obqp->bsize - sizeof (size_t));
 8001772:	69e2      	ldr	r2, [r4, #28]
  *((size_t *)(void *)obqp->bwrptr) = size;
 8001774:	6923      	ldr	r3, [r4, #16]
      obqPostFullBufferS(obqp, obqp->bsize - sizeof (size_t));
 8001776:	3a04      	subs	r2, #4
  *((size_t *)(void *)obqp->bwrptr) = size;
 8001778:	601a      	str	r2, [r3, #0]
  obqp->bcounter--;
 800177a:	68e2      	ldr	r2, [r4, #12]
 800177c:	3a01      	subs	r2, #1
 800177e:	60e2      	str	r2, [r4, #12]
  obqp->bwrptr += obqp->bsize;
 8001780:	69e2      	ldr	r2, [r4, #28]
 8001782:	189b      	adds	r3, r3, r2
  if (obqp->bwrptr >= obqp->btop) {
 8001784:	69a2      	ldr	r2, [r4, #24]
  obqp->bwrptr += obqp->bsize;
 8001786:	6123      	str	r3, [r4, #16]
  if (obqp->bwrptr >= obqp->btop) {
 8001788:	4293      	cmp	r3, r2
 800178a:	d301      	bcc.n	8001790 <obqWriteTimeout+0x90>
    obqp->bwrptr = obqp->buffers;
 800178c:	6a63      	ldr	r3, [r4, #36]	@ 0x24
 800178e:	6123      	str	r3, [r4, #16]
  obqp->ptr = NULL;
 8001790:	4653      	mov	r3, sl
 8001792:	62a3      	str	r3, [r4, #40]	@ 0x28
  if (obqp->notify != NULL) {
 8001794:	6b23      	ldr	r3, [r4, #48]	@ 0x30
 8001796:	2b00      	cmp	r3, #0
 8001798:	d0cf      	beq.n	800173a <obqWriteTimeout+0x3a>
    obqp->notify(obqp);
 800179a:	0020      	movs	r0, r4
 800179c:	4798      	blx	r3
 800179e:	e7cc      	b.n	800173a <obqWriteTimeout+0x3a>
  while (obqIsFullI(obqp)) {
 80017a0:	68e3      	ldr	r3, [r4, #12]
 80017a2:	2b00      	cmp	r3, #0
 80017a4:	d11b      	bne.n	80017de <obqWriteTimeout+0xde>
    if (obqp->suspended) {
 80017a6:	7a23      	ldrb	r3, [r4, #8]
 80017a8:	2b00      	cmp	r3, #0
 80017aa:	d11f      	bne.n	80017ec <obqWriteTimeout+0xec>
 80017ac:	464b      	mov	r3, r9
 80017ae:	68d8      	ldr	r0, [r3, #12]
  if (unlikely(TIME_IMMEDIATE == timeout)) {
 80017b0:	4643      	mov	r3, r8
 80017b2:	2b00      	cmp	r3, #0
 80017b4:	d105      	bne.n	80017c2 <obqWriteTimeout+0xc2>
 80017b6:	e019      	b.n	80017ec <obqWriteTimeout+0xec>
 80017b8:	7a23      	ldrb	r3, [r4, #8]
 80017ba:	2b00      	cmp	r3, #0
 80017bc:	d116      	bne.n	80017ec <obqWriteTimeout+0xec>
 80017be:	464b      	mov	r3, r9
 80017c0:	68d8      	ldr	r0, [r3, #12]
  p->prev       = qp->prev;
 80017c2:	6863      	ldr	r3, [r4, #4]
  p->next       = qp;
 80017c4:	6004      	str	r4, [r0, #0]
  p->prev       = qp->prev;
 80017c6:	6043      	str	r3, [r0, #4]
  return chSchGoSleepTimeoutS(CH_STATE_QUEUED, timeout);
 80017c8:	4641      	mov	r1, r8
  p->prev->next = p;
 80017ca:	6018      	str	r0, [r3, #0]
  qp->prev      = p;
 80017cc:	6060      	str	r0, [r4, #4]
 80017ce:	2004      	movs	r0, #4
 80017d0:	f7ff fd4e 	bl	8001270 <chSchGoSleepTimeoutS>
    if (msg < MSG_OK) {
 80017d4:	2800      	cmp	r0, #0
 80017d6:	db09      	blt.n	80017ec <obqWriteTimeout+0xec>
  while (obqIsFullI(obqp)) {
 80017d8:	68e3      	ldr	r3, [r4, #12]
 80017da:	2b00      	cmp	r3, #0
 80017dc:	d0ec      	beq.n	80017b8 <obqWriteTimeout+0xb8>
  obqp->ptr = obqp->bwrptr + sizeof (size_t);
 80017de:	6923      	ldr	r3, [r4, #16]
  obqp->top = obqp->bwrptr + obqp->bsize;
 80017e0:	69e2      	ldr	r2, [r4, #28]
  obqp->ptr = obqp->bwrptr + sizeof (size_t);
 80017e2:	1d18      	adds	r0, r3, #4
  obqp->top = obqp->bwrptr + obqp->bsize;
 80017e4:	189b      	adds	r3, r3, r2
  obqp->ptr = obqp->bwrptr + sizeof (size_t);
 80017e6:	62a0      	str	r0, [r4, #40]	@ 0x28
  obqp->top = obqp->bwrptr + obqp->bsize;
 80017e8:	62e3      	str	r3, [r4, #44]	@ 0x2c
      if (msg != MSG_OK) {
 80017ea:	e7ae      	b.n	800174a <obqWriteTimeout+0x4a>
  __ASM volatile ("cpsie i" : : : "memory");
 80017ec:	b662      	cpsie	i
}
 80017ee:	0028      	movs	r0, r5
 80017f0:	bcf0      	pop	{r4, r5, r6, r7}
 80017f2:	46bb      	mov	fp, r7
 80017f4:	46b2      	mov	sl, r6
 80017f6:	46a9      	mov	r9, r5
 80017f8:	46a0      	mov	r8, r4
 80017fa:	bdf8      	pop	{r3, r4, r5, r6, r7, pc}
 80017fc:	200010b0 	.word	0x200010b0

08001800 <_write.lto_priv.1>:
static size_t _write(void *ip, const uint8_t *bp, size_t n) {
 8001800:	b510      	push	{r4, lr}
  return obqWriteTimeout(&((SerialUSBDriver *)ip)->obqueue, bp,
 8001802:	4b02      	ldr	r3, [pc, #8]	@ (800180c <_write.lto_priv.1+0xc>)
 8001804:	3044      	adds	r0, #68	@ 0x44
 8001806:	f7ff ff7b 	bl	8001700 <obqWriteTimeout>
}
 800180a:	bd10      	pop	{r4, pc}
 800180c:	0000ffff 	.word	0x0000ffff

08001810 <_writet.lto_priv.1>:
                      sysinterval_t timeout) {
 8001810:	b510      	push	{r4, lr}
  return obqWriteTimeout(&((SerialUSBDriver *)ip)->obqueue, bp, n, timeout);
 8001812:	3044      	adds	r0, #68	@ 0x44
 8001814:	f7ff ff74 	bl	8001700 <obqWriteTimeout>
}
 8001818:	bd10      	pop	{r4, pc}
 800181a:	46c0      	nop			@ (mov r8, r8)
 800181c:	0000      	movs	r0, r0
	...

08001820 <iqGetTimeout>:
 * @retval MSG_TIMEOUT  if the specified time expired.
 * @retval MSG_RESET    if the queue has been reset.
 *
 * @api
 */
msg_t iqGetTimeout(input_queue_t *iqp, sysinterval_t timeout) {
 8001820:	b570      	push	{r4, r5, r6, lr}
 8001822:	0004      	movs	r4, r0
 8001824:	000d      	movs	r5, r1
  __ASM volatile ("cpsid i" : : : "memory");
 8001826:	b672      	cpsid	i
  uint8_t b;

  osalSysLock();

  /* Waiting until there is a character available or a timeout occurs.*/
  while (iqIsEmptyI(iqp)) {
 8001828:	6883      	ldr	r3, [r0, #8]
 800182a:	2b00      	cmp	r3, #0
 800182c:	d113      	bne.n	8001856 <iqGetTimeout+0x36>
 800182e:	4e16      	ldr	r6, [pc, #88]	@ (8001888 <iqGetTimeout+0x68>)
 8001830:	68f3      	ldr	r3, [r6, #12]
  if (unlikely(TIME_IMMEDIATE == timeout)) {
 8001832:	2900      	cmp	r1, #0
 8001834:	d101      	bne.n	800183a <iqGetTimeout+0x1a>
 8001836:	e022      	b.n	800187e <iqGetTimeout+0x5e>
 8001838:	68f3      	ldr	r3, [r6, #12]
  p->prev       = qp->prev;
 800183a:	6862      	ldr	r2, [r4, #4]
  p->next       = qp;
 800183c:	601c      	str	r4, [r3, #0]
  p->prev       = qp->prev;
 800183e:	605a      	str	r2, [r3, #4]
  return chSchGoSleepTimeoutS(CH_STATE_QUEUED, timeout);
 8001840:	0029      	movs	r1, r5
  p->prev->next = p;
 8001842:	6013      	str	r3, [r2, #0]
 8001844:	2004      	movs	r0, #4
  qp->prev      = p;
 8001846:	6063      	str	r3, [r4, #4]
 8001848:	f7ff fd12 	bl	8001270 <chSchGoSleepTimeoutS>
    msg_t msg = osalThreadEnqueueTimeoutS(&iqp->q_waiting, timeout);
    if (msg < MSG_OK) {
 800184c:	2800      	cmp	r0, #0
 800184e:	db18      	blt.n	8001882 <iqGetTimeout+0x62>
  while (iqIsEmptyI(iqp)) {
 8001850:	68a3      	ldr	r3, [r4, #8]
 8001852:	2b00      	cmp	r3, #0
 8001854:	d0f0      	beq.n	8001838 <iqGetTimeout+0x18>
      return msg;
    }
  }

  /* Getting the character from the queue.*/
  iqp->q_counter--;
 8001856:	68a3      	ldr	r3, [r4, #8]
  b = *iqp->q_rdptr++;
 8001858:	69a2      	ldr	r2, [r4, #24]
  iqp->q_counter--;
 800185a:	3b01      	subs	r3, #1
 800185c:	60a3      	str	r3, [r4, #8]
  b = *iqp->q_rdptr++;
 800185e:	1c53      	adds	r3, r2, #1
 8001860:	61a3      	str	r3, [r4, #24]
 8001862:	7815      	ldrb	r5, [r2, #0]
  if (iqp->q_rdptr >= iqp->q_top) {
 8001864:	6922      	ldr	r2, [r4, #16]
 8001866:	4293      	cmp	r3, r2
 8001868:	d301      	bcc.n	800186e <iqGetTimeout+0x4e>
    iqp->q_rdptr = iqp->q_buffer;
 800186a:	68e3      	ldr	r3, [r4, #12]
 800186c:	61a3      	str	r3, [r4, #24]
  }

  /* Inform the low side that the queue has at least one slot available.*/
  if (iqp->q_notify != NULL) {
 800186e:	69e3      	ldr	r3, [r4, #28]
 8001870:	2b00      	cmp	r3, #0
 8001872:	d001      	beq.n	8001878 <iqGetTimeout+0x58>
    iqp->q_notify(iqp);
 8001874:	0020      	movs	r0, r4
 8001876:	4798      	blx	r3
  __ASM volatile ("cpsie i" : : : "memory");
 8001878:	b662      	cpsie	i
  }

  osalSysUnlock();

  return (msg_t)b;
 800187a:	0028      	movs	r0, r5
}
 800187c:	bd70      	pop	{r4, r5, r6, pc}
    return MSG_TIMEOUT;
 800187e:	2001      	movs	r0, #1
 8001880:	4240      	negs	r0, r0
 8001882:	b662      	cpsie	i
      return msg;
 8001884:	e7fa      	b.n	800187c <iqGetTimeout+0x5c>
 8001886:	46c0      	nop			@ (mov r8, r8)
 8001888:	200010b0 	.word	0x200010b0
 800188c:	00000000 	.word	0x00000000

08001890 <_get.lto_priv.0>:
static msg_t _get(void *ip) {
 8001890:	b510      	push	{r4, lr}
  return iqGetTimeout(&((SerialDriver *)ip)->iqueue, TIME_INFINITE);
 8001892:	4902      	ldr	r1, [pc, #8]	@ (800189c <_get.lto_priv.0+0xc>)
 8001894:	300c      	adds	r0, #12
 8001896:	f7ff ffc3 	bl	8001820 <iqGetTimeout>
}
 800189a:	bd10      	pop	{r4, pc}
 800189c:	0000ffff 	.word	0x0000ffff

080018a0 <_gett.lto_priv.0>:
static msg_t _gett(void *ip, sysinterval_t timeout) {
 80018a0:	b510      	push	{r4, lr}
  return iqGetTimeout(&((SerialDriver *)ip)->iqueue, timeout);
 80018a2:	300c      	adds	r0, #12
 80018a4:	f7ff ffbc 	bl	8001820 <iqGetTimeout>
}
 80018a8:	bd10      	pop	{r4, pc}
 80018aa:	46c0      	nop			@ (mov r8, r8)
 80018ac:	0000      	movs	r0, r0
	...

080018b0 <iqReadTimeout>:
 * @return              The number of bytes effectively transferred.
 *
 * @api
 */
size_t iqReadTimeout(input_queue_t *iqp, uint8_t *bp,
                     size_t n, sysinterval_t timeout) {
 80018b0:	b5f0      	push	{r4, r5, r6, r7, lr}
 80018b2:	464e      	mov	r6, r9
 80018b4:	4645      	mov	r5, r8
 80018b6:	46de      	mov	lr, fp
 80018b8:	4657      	mov	r7, sl
 80018ba:	b5e0      	push	{r5, r6, r7, lr}
 80018bc:	b083      	sub	sp, #12
 80018be:	9300      	str	r3, [sp, #0]
  qnotify_t nfy = iqp->q_notify;
 80018c0:	69c3      	ldr	r3, [r0, #28]
                     size_t n, sysinterval_t timeout) {
 80018c2:	0004      	movs	r4, r0
 80018c4:	4688      	mov	r8, r1
  qnotify_t nfy = iqp->q_notify;
 80018c6:	4699      	mov	r9, r3
                     size_t n, sysinterval_t timeout) {
 80018c8:	9201      	str	r2, [sp, #4]
  __ASM volatile ("cpsid i" : : : "memory");
 80018ca:	b672      	cpsid	i

  osalDbgCheck(n > 0U);

  osalSysLock();

  while (n > 0U) {
 80018cc:	1e17      	subs	r7, r2, #0
 80018ce:	d029      	beq.n	8001924 <iqReadTimeout+0x74>
 80018d0:	4b2b      	ldr	r3, [pc, #172]	@ (8001980 <iqReadTimeout+0xd0>)
 80018d2:	469b      	mov	fp, r3
  if (n > iqGetFullI(iqp)) {
 80018d4:	68a3      	ldr	r3, [r4, #8]
 80018d6:	003d      	movs	r5, r7
 80018d8:	42bb      	cmp	r3, r7
 80018da:	d200      	bcs.n	80018de <iqReadTimeout+0x2e>
    n = iqGetFullI(iqp);
 80018dc:	68a5      	ldr	r5, [r4, #8]
  s1 = (size_t)(iqp->q_top - iqp->q_rdptr);
 80018de:	69a1      	ldr	r1, [r4, #24]
 80018e0:	6926      	ldr	r6, [r4, #16]
 80018e2:	1a76      	subs	r6, r6, r1
  if (n < s1) {
 80018e4:	42ae      	cmp	r6, r5
 80018e6:	d844      	bhi.n	8001972 <iqReadTimeout+0xc2>
  else if (n > s1) {
 80018e8:	d225      	bcs.n	8001936 <iqReadTimeout+0x86>
    memcpy((void *)bp, (void *)iqp->q_rdptr, s1);
 80018ea:	0032      	movs	r2, r6
 80018ec:	4640      	mov	r0, r8
 80018ee:	f7fe fcc9 	bl	8000284 <memcpy>
    bp += s1;
 80018f2:	0030      	movs	r0, r6
    s2 = n - s1;
 80018f4:	1bab      	subs	r3, r5, r6
 80018f6:	469a      	mov	sl, r3
    memcpy((void *)bp, (void *)iqp->q_buffer, s2);
 80018f8:	001a      	movs	r2, r3
 80018fa:	68e1      	ldr	r1, [r4, #12]
    bp += s1;
 80018fc:	4440      	add	r0, r8
    memcpy((void *)bp, (void *)iqp->q_buffer, s2);
 80018fe:	f7fe fcc1 	bl	8000284 <memcpy>
    iqp->q_rdptr = iqp->q_buffer + s2;
 8001902:	68e3      	ldr	r3, [r4, #12]
 8001904:	4453      	add	r3, sl
 8001906:	61a3      	str	r3, [r4, #24]
  iqp->q_counter -= n;
 8001908:	68a3      	ldr	r3, [r4, #8]
 800190a:	1b5b      	subs	r3, r3, r5
 800190c:	60a3      	str	r3, [r4, #8]
      }
    }
    else {
      /* Inform the low side that the queue has at least one empty slot
         available.*/
      if (nfy != NULL) {
 800190e:	464b      	mov	r3, r9
 8001910:	2b00      	cmp	r3, #0
 8001912:	d001      	beq.n	8001918 <iqReadTimeout+0x68>
        nfy(iqp);
 8001914:	0020      	movs	r0, r4
 8001916:	47c8      	blx	r9
  __ASM volatile ("cpsie i" : : : "memory");
 8001918:	b662      	cpsie	i
      }

      /* Giving a preemption chance in a controlled point.*/
      osalSysUnlock();

      n  -= done;
 800191a:	1b7f      	subs	r7, r7, r5
      bp += done;
 800191c:	44a8      	add	r8, r5
  __ASM volatile ("cpsid i" : : : "memory");
 800191e:	b672      	cpsid	i
  while (n > 0U) {
 8001920:	2f00      	cmp	r7, #0
 8001922:	d1d7      	bne.n	80018d4 <iqReadTimeout+0x24>
 8001924:	9801      	ldr	r0, [sp, #4]
  __ASM volatile ("cpsie i" : : : "memory");
 8001926:	b662      	cpsie	i
    }
  }

  osalSysUnlock();
  return max - n;
}
 8001928:	b003      	add	sp, #12
 800192a:	bcf0      	pop	{r4, r5, r6, r7}
 800192c:	46bb      	mov	fp, r7
 800192e:	46b2      	mov	sl, r6
 8001930:	46a9      	mov	r9, r5
 8001932:	46a0      	mov	r8, r4
 8001934:	bdf0      	pop	{r4, r5, r6, r7, pc}
    memcpy((void *)bp, (void *)iqp->q_rdptr, n);
 8001936:	002a      	movs	r2, r5
 8001938:	4640      	mov	r0, r8
 800193a:	f7fe fca3 	bl	8000284 <memcpy>
    iqp->q_rdptr = iqp->q_buffer;
 800193e:	68e3      	ldr	r3, [r4, #12]
    iqp->q_rdptr += n;
 8001940:	61a3      	str	r3, [r4, #24]
  iqp->q_counter -= n;
 8001942:	68a3      	ldr	r3, [r4, #8]
 8001944:	1b5b      	subs	r3, r3, r5
 8001946:	60a3      	str	r3, [r4, #8]
    if (done == (size_t)0) {
 8001948:	2d00      	cmp	r5, #0
 800194a:	d1e0      	bne.n	800190e <iqReadTimeout+0x5e>
 800194c:	465b      	mov	r3, fp
  if (unlikely(TIME_IMMEDIATE == timeout)) {
 800194e:	9a00      	ldr	r2, [sp, #0]
 8001950:	68db      	ldr	r3, [r3, #12]
 8001952:	2a00      	cmp	r2, #0
 8001954:	d00a      	beq.n	800196c <iqReadTimeout+0xbc>
  p->prev       = qp->prev;
 8001956:	6862      	ldr	r2, [r4, #4]
  p->next       = qp;
 8001958:	601c      	str	r4, [r3, #0]
  p->prev       = qp->prev;
 800195a:	605a      	str	r2, [r3, #4]
  return chSchGoSleepTimeoutS(CH_STATE_QUEUED, timeout);
 800195c:	2004      	movs	r0, #4
  p->prev->next = p;
 800195e:	6013      	str	r3, [r2, #0]
 8001960:	9900      	ldr	r1, [sp, #0]
  qp->prev      = p;
 8001962:	6063      	str	r3, [r4, #4]
 8001964:	f7ff fc84 	bl	8001270 <chSchGoSleepTimeoutS>
      if (msg != MSG_OK) {
 8001968:	2800      	cmp	r0, #0
 800196a:	d0b3      	beq.n	80018d4 <iqReadTimeout+0x24>
  return max - n;
 800196c:	9b01      	ldr	r3, [sp, #4]
 800196e:	1bd8      	subs	r0, r3, r7
 8001970:	e7d9      	b.n	8001926 <iqReadTimeout+0x76>
    memcpy((void *)bp, (void *)iqp->q_rdptr, n);
 8001972:	002a      	movs	r2, r5
 8001974:	4640      	mov	r0, r8
 8001976:	f7fe fc85 	bl	8000284 <memcpy>
    iqp->q_rdptr += n;
 800197a:	69a3      	ldr	r3, [r4, #24]
 800197c:	195b      	adds	r3, r3, r5
 800197e:	e7df      	b.n	8001940 <iqReadTimeout+0x90>
 8001980:	200010b0 	.word	0x200010b0
	...

08001990 <_read.lto_priv.0>:
static size_t _read(void *ip, uint8_t *bp, size_t n) {
 8001990:	b510      	push	{r4, lr}
  return iqReadTimeout(&((SerialDriver *)ip)->iqueue, bp,
 8001992:	4b02      	ldr	r3, [pc, #8]	@ (800199c <_read.lto_priv.0+0xc>)
 8001994:	300c      	adds	r0, #12
 8001996:	f7ff ff8b 	bl	80018b0 <iqReadTimeout>
}
 800199a:	bd10      	pop	{r4, pc}
 800199c:	0000ffff 	.word	0x0000ffff

080019a0 <_readt.lto_priv.0>:
                     sysinterval_t timeout) {
 80019a0:	b510      	push	{r4, lr}
  return iqReadTimeout(&((SerialDriver *)ip)->iqueue, bp, n, timeout);
 80019a2:	300c      	adds	r0, #12
 80019a4:	f7ff ff84 	bl	80018b0 <iqReadTimeout>
}
 80019a8:	bd10      	pop	{r4, pc}
 80019aa:	46c0      	nop			@ (mov r8, r8)
 80019ac:	0000      	movs	r0, r0
	...

080019b0 <oqPutTimeout>:
 * @retval MSG_TIMEOUT  if the specified time expired.
 * @retval MSG_RESET    if the queue has been reset.
 *
 * @api
 */
msg_t oqPutTimeout(output_queue_t *oqp, uint8_t b, sysinterval_t timeout) {
 80019b0:	b5f8      	push	{r3, r4, r5, r6, r7, lr}
 80019b2:	0004      	movs	r4, r0
 80019b4:	000f      	movs	r7, r1
 80019b6:	0015      	movs	r5, r2
  __ASM volatile ("cpsid i" : : : "memory");
 80019b8:	b672      	cpsid	i

  osalSysLock();

  /* Waiting until there is a slot available or a timeout occurs.*/
  while (oqIsFullI(oqp)) {
 80019ba:	6883      	ldr	r3, [r0, #8]
 80019bc:	2b00      	cmp	r3, #0
 80019be:	d113      	bne.n	80019e8 <oqPutTimeout+0x38>
 80019c0:	4e16      	ldr	r6, [pc, #88]	@ (8001a1c <oqPutTimeout+0x6c>)
 80019c2:	68f3      	ldr	r3, [r6, #12]
  if (unlikely(TIME_IMMEDIATE == timeout)) {
 80019c4:	2a00      	cmp	r2, #0
 80019c6:	d101      	bne.n	80019cc <oqPutTimeout+0x1c>
 80019c8:	e023      	b.n	8001a12 <oqPutTimeout+0x62>
 80019ca:	68f3      	ldr	r3, [r6, #12]
  p->prev       = qp->prev;
 80019cc:	6860      	ldr	r0, [r4, #4]
  p->next       = qp;
 80019ce:	601c      	str	r4, [r3, #0]
  p->prev       = qp->prev;
 80019d0:	6058      	str	r0, [r3, #4]
  return chSchGoSleepTimeoutS(CH_STATE_QUEUED, timeout);
 80019d2:	0029      	movs	r1, r5
  p->prev->next = p;
 80019d4:	6003      	str	r3, [r0, #0]
 80019d6:	2004      	movs	r0, #4
  qp->prev      = p;
 80019d8:	6063      	str	r3, [r4, #4]
 80019da:	f7ff fc49 	bl	8001270 <chSchGoSleepTimeoutS>
    msg_t msg = osalThreadEnqueueTimeoutS(&oqp->q_waiting, timeout);
    if (msg < MSG_OK) {
 80019de:	2800      	cmp	r0, #0
 80019e0:	db19      	blt.n	8001a16 <oqPutTimeout+0x66>
  while (oqIsFullI(oqp)) {
 80019e2:	68a3      	ldr	r3, [r4, #8]
 80019e4:	2b00      	cmp	r3, #0
 80019e6:	d0f0      	beq.n	80019ca <oqPutTimeout+0x1a>
      return msg;
    }
  }

  /* Putting the character into the queue.*/
  oqp->q_counter--;
 80019e8:	68a3      	ldr	r3, [r4, #8]
 80019ea:	3b01      	subs	r3, #1
 80019ec:	60a3      	str	r3, [r4, #8]
  *oqp->q_wrptr++ = b;
 80019ee:	6963      	ldr	r3, [r4, #20]
 80019f0:	1c5a      	adds	r2, r3, #1
 80019f2:	6162      	str	r2, [r4, #20]
 80019f4:	701f      	strb	r7, [r3, #0]
  if (oqp->q_wrptr >= oqp->q_top) {
 80019f6:	6962      	ldr	r2, [r4, #20]
 80019f8:	6923      	ldr	r3, [r4, #16]
 80019fa:	429a      	cmp	r2, r3
 80019fc:	d301      	bcc.n	8001a02 <oqPutTimeout+0x52>
    oqp->q_wrptr = oqp->q_buffer;
 80019fe:	68e3      	ldr	r3, [r4, #12]
 8001a00:	6163      	str	r3, [r4, #20]
  }

  /* Inform the low side that the queue has at least one character available.*/
  if (oqp->q_notify != NULL) {
 8001a02:	69e3      	ldr	r3, [r4, #28]
 8001a04:	2b00      	cmp	r3, #0
 8001a06:	d001      	beq.n	8001a0c <oqPutTimeout+0x5c>
    oqp->q_notify(oqp);
 8001a08:	0020      	movs	r0, r4
 8001a0a:	4798      	blx	r3
  __ASM volatile ("cpsie i" : : : "memory");
 8001a0c:	b662      	cpsie	i
 8001a0e:	2000      	movs	r0, #0
  }

  osalSysUnlock();

  return MSG_OK;
}
 8001a10:	bdf8      	pop	{r3, r4, r5, r6, r7, pc}
    return MSG_TIMEOUT;
 8001a12:	2001      	movs	r0, #1
 8001a14:	4240      	negs	r0, r0
 8001a16:	b662      	cpsie	i
      return msg;
 8001a18:	e7fa      	b.n	8001a10 <oqPutTimeout+0x60>
 8001a1a:	46c0      	nop			@ (mov r8, r8)
 8001a1c:	200010b0 	.word	0x200010b0

08001a20 <_put.lto_priv.0>:
static msg_t _put(void *ip, uint8_t b) {
 8001a20:	b510      	push	{r4, lr}
  return oqPutTimeout(&((SerialDriver *)ip)->oqueue, b, TIME_INFINITE);
 8001a22:	4a02      	ldr	r2, [pc, #8]	@ (8001a2c <_put.lto_priv.0+0xc>)
 8001a24:	3030      	adds	r0, #48	@ 0x30
 8001a26:	f7ff ffc3 	bl	80019b0 <oqPutTimeout>
}
 8001a2a:	bd10      	pop	{r4, pc}
 8001a2c:	0000ffff 	.word	0x0000ffff

08001a30 <_putt.lto_priv.0>:
static msg_t _putt(void *ip, uint8_t b, sysinterval_t timeout) {
 8001a30:	b510      	push	{r4, lr}
  return oqPutTimeout(&((SerialDriver *)ip)->oqueue, b, timeout);
 8001a32:	3030      	adds	r0, #48	@ 0x30
 8001a34:	f7ff ffbc 	bl	80019b0 <oqPutTimeout>
}
 8001a38:	bd10      	pop	{r4, pc}
 8001a3a:	46c0      	nop			@ (mov r8, r8)
 8001a3c:	0000      	movs	r0, r0
	...

08001a40 <oqWriteTimeout>:
 * @return              The number of bytes effectively transferred.
 *
 * @api
 */
size_t oqWriteTimeout(output_queue_t *oqp, const uint8_t *bp,
                      size_t n, sysinterval_t timeout) {
 8001a40:	b5f0      	push	{r4, r5, r6, r7, lr}
 8001a42:	464e      	mov	r6, r9
 8001a44:	4645      	mov	r5, r8
 8001a46:	46de      	mov	lr, fp
 8001a48:	4657      	mov	r7, sl
 8001a4a:	b5e0      	push	{r5, r6, r7, lr}
 8001a4c:	b083      	sub	sp, #12
 8001a4e:	9300      	str	r3, [sp, #0]
  qnotify_t nfy = oqp->q_notify;
 8001a50:	69c3      	ldr	r3, [r0, #28]
                      size_t n, sysinterval_t timeout) {
 8001a52:	0004      	movs	r4, r0
 8001a54:	4688      	mov	r8, r1
  qnotify_t nfy = oqp->q_notify;
 8001a56:	4699      	mov	r9, r3
                      size_t n, sysinterval_t timeout) {
 8001a58:	9201      	str	r2, [sp, #4]
  __ASM volatile ("cpsid i" : : : "memory");
 8001a5a:	b672      	cpsid	i

  osalDbgCheck(n > 0U);

  osalSysLock();

  while (n > 0U) {
 8001a5c:	1e17      	subs	r7, r2, #0
 8001a5e:	d029      	beq.n	8001ab4 <oqWriteTimeout+0x74>
 8001a60:	4b2b      	ldr	r3, [pc, #172]	@ (8001b10 <oqWriteTimeout+0xd0>)
 8001a62:	469b      	mov	fp, r3
  if (n > oqGetEmptyI(oqp)) {
 8001a64:	68a3      	ldr	r3, [r4, #8]
 8001a66:	003d      	movs	r5, r7
 8001a68:	42bb      	cmp	r3, r7
 8001a6a:	d200      	bcs.n	8001a6e <oqWriteTimeout+0x2e>
    n = oqGetEmptyI(oqp);
 8001a6c:	68a5      	ldr	r5, [r4, #8]
  s1 = (size_t)(oqp->q_top - oqp->q_wrptr);
 8001a6e:	6960      	ldr	r0, [r4, #20]
 8001a70:	6926      	ldr	r6, [r4, #16]
 8001a72:	1a36      	subs	r6, r6, r0
  if (n < s1) {
 8001a74:	42ae      	cmp	r6, r5
 8001a76:	d844      	bhi.n	8001b02 <oqWriteTimeout+0xc2>
  else if (n > s1) {
 8001a78:	d225      	bcs.n	8001ac6 <oqWriteTimeout+0x86>
    memcpy((void *)oqp->q_wrptr, (const void *)bp, s1);
 8001a7a:	0032      	movs	r2, r6
 8001a7c:	4641      	mov	r1, r8
 8001a7e:	f7fe fc01 	bl	8000284 <memcpy>
    bp += s1;
 8001a82:	0031      	movs	r1, r6
    s2 = n - s1;
 8001a84:	1bab      	subs	r3, r5, r6
 8001a86:	469a      	mov	sl, r3
    memcpy((void *)oqp->q_buffer, (const void *)bp, s2);
 8001a88:	001a      	movs	r2, r3
 8001a8a:	68e0      	ldr	r0, [r4, #12]
    bp += s1;
 8001a8c:	4441      	add	r1, r8
    memcpy((void *)oqp->q_buffer, (const void *)bp, s2);
 8001a8e:	f7fe fbf9 	bl	8000284 <memcpy>
    oqp->q_wrptr = oqp->q_buffer + s2;
 8001a92:	68e3      	ldr	r3, [r4, #12]
 8001a94:	4453      	add	r3, sl
 8001a96:	6163      	str	r3, [r4, #20]
  oqp->q_counter -= n;
 8001a98:	68a3      	ldr	r3, [r4, #8]
 8001a9a:	1b5b      	subs	r3, r3, r5
 8001a9c:	60a3      	str	r3, [r4, #8]
      }
    }
    else {
      /* Inform the low side that the queue has at least one character
         available.*/
      if (nfy != NULL) {
 8001a9e:	464b      	mov	r3, r9
 8001aa0:	2b00      	cmp	r3, #0
 8001aa2:	d001      	beq.n	8001aa8 <oqWriteTimeout+0x68>
        nfy(oqp);
 8001aa4:	0020      	movs	r0, r4
 8001aa6:	47c8      	blx	r9
  __ASM volatile ("cpsie i" : : : "memory");
 8001aa8:	b662      	cpsie	i
      }

      /* Giving a preemption chance in a controlled point.*/
      osalSysUnlock();

      n  -= done;
 8001aaa:	1b7f      	subs	r7, r7, r5
      bp += done;
 8001aac:	44a8      	add	r8, r5
  __ASM volatile ("cpsid i" : : : "memory");
 8001aae:	b672      	cpsid	i
  while (n > 0U) {
 8001ab0:	2f00      	cmp	r7, #0
 8001ab2:	d1d7      	bne.n	8001a64 <oqWriteTimeout+0x24>
 8001ab4:	9801      	ldr	r0, [sp, #4]
  __ASM volatile ("cpsie i" : : : "memory");
 8001ab6:	b662      	cpsie	i
    }
  }

  osalSysUnlock();
  return max - n;
}
 8001ab8:	b003      	add	sp, #12
 8001aba:	bcf0      	pop	{r4, r5, r6, r7}
 8001abc:	46bb      	mov	fp, r7
 8001abe:	46b2      	mov	sl, r6
 8001ac0:	46a9      	mov	r9, r5
 8001ac2:	46a0      	mov	r8, r4
 8001ac4:	bdf0      	pop	{r4, r5, r6, r7, pc}
    memcpy((void *)oqp->q_wrptr, (const void *)bp, n);
 8001ac6:	002a      	movs	r2, r5
 8001ac8:	4641      	mov	r1, r8
 8001aca:	f7fe fbdb 	bl	8000284 <memcpy>
    oqp->q_wrptr = oqp->q_buffer;
 8001ace:	68e3      	ldr	r3, [r4, #12]
    oqp->q_wrptr += n;
 8001ad0:	6163      	str	r3, [r4, #20]
  oqp->q_counter -= n;
 8001ad2:	68a3      	ldr	r3, [r4, #8]
 8001ad4:	1b5b      	subs	r3, r3, r5
 8001ad6:	60a3      	str	r3, [r4, #8]
    if (done == (size_t)0) {
 8001ad8:	2d00      	cmp	r5, #0
 8001ada:	d1e0      	bne.n	8001a9e <oqWriteTimeout+0x5e>
 8001adc:	465b      	mov	r3, fp
  if (unlikely(TIME_IMMEDIATE == timeout)) {
 8001ade:	9a00      	ldr	r2, [sp, #0]
 8001ae0:	68db      	ldr	r3, [r3, #12]
 8001ae2:	2a00      	cmp	r2, #0
 8001ae4:	d00a      	beq.n	8001afc <oqWriteTimeout+0xbc>
  p->prev       = qp->prev;
 8001ae6:	6862      	ldr	r2, [r4, #4]
  p->next       = qp;
 8001ae8:	601c      	str	r4, [r3, #0]
  p->prev       = qp->prev;
 8001aea:	605a      	str	r2, [r3, #4]
  return chSchGoSleepTimeoutS(CH_STATE_QUEUED, timeout);
 8001aec:	2004      	movs	r0, #4
  p->prev->next = p;
 8001aee:	6013      	str	r3, [r2, #0]
 8001af0:	9900      	ldr	r1, [sp, #0]
  qp->prev      = p;
 8001af2:	6063      	str	r3, [r4, #4]
 8001af4:	f7ff fbbc 	bl	8001270 <chSchGoSleepTimeoutS>
      if (msg != MSG_OK) {
 8001af8:	2800      	cmp	r0, #0
 8001afa:	d0b3      	beq.n	8001a64 <oqWriteTimeout+0x24>
  return max - n;
 8001afc:	9b01      	ldr	r3, [sp, #4]
 8001afe:	1bd8      	subs	r0, r3, r7
 8001b00:	e7d9      	b.n	8001ab6 <oqWriteTimeout+0x76>
    memcpy((void *)oqp->q_wrptr, (const void *)bp, n);
 8001b02:	002a      	movs	r2, r5
 8001b04:	4641      	mov	r1, r8
 8001b06:	f7fe fbbd 	bl	8000284 <memcpy>
    oqp->q_wrptr += n;
 8001b0a:	6963      	ldr	r3, [r4, #20]
 8001b0c:	195b      	adds	r3, r3, r5
 8001b0e:	e7df      	b.n	8001ad0 <oqWriteTimeout+0x90>
 8001b10:	200010b0 	.word	0x200010b0
	...

08001b20 <_write.lto_priv.0>:
static size_t _write(void *ip, const uint8_t *bp, size_t n) {
 8001b20:	b510      	push	{r4, lr}
  return oqWriteTimeout(&((SerialDriver *)ip)->oqueue, bp,
 8001b22:	4b02      	ldr	r3, [pc, #8]	@ (8001b2c <_write.lto_priv.0+0xc>)
 8001b24:	3030      	adds	r0, #48	@ 0x30
 8001b26:	f7ff ff8b 	bl	8001a40 <oqWriteTimeout>
}
 8001b2a:	bd10      	pop	{r4, pc}
 8001b2c:	0000ffff 	.word	0x0000ffff

08001b30 <_writet.lto_priv.0>:
                      sysinterval_t timeout) {
 8001b30:	b510      	push	{r4, lr}
  return oqWriteTimeout(&((SerialDriver *)ip)->oqueue, bp, n, timeout);
 8001b32:	3030      	adds	r0, #48	@ 0x30
 8001b34:	f7ff ff84 	bl	8001a40 <oqWriteTimeout>
}
 8001b38:	bd10      	pop	{r4, pc}
 8001b3a:	46c0      	nop			@ (mov r8, r8)
 8001b3c:	0000      	movs	r0, r0
	...

08001b40 <ee_ws2812b_render.isra.0>:
    dmaStreamEnable(dma_stream);

    return 0;
}

uint8_t ee_ws2812b_render(void) {
 8001b40:	b570      	push	{r4, r5, r6, lr}
    while (!dma_ready) {
 8001b42:	4c25      	ldr	r4, [pc, #148]	@ (8001bd8 <ee_ws2812b_render.isra.0+0x98>)
 8001b44:	7823      	ldrb	r3, [r4, #0]
 8001b46:	2b00      	cmp	r3, #0
 8001b48:	d108      	bne.n	8001b5c <ee_ws2812b_render.isra.0+0x1c>
  __ASM volatile ("cpsid i" : : : "memory");
 8001b4a:	b672      	cpsid	i
  (void) chSchGoSleepTimeoutS(CH_STATE_SLEEPING, ticks);
 8001b4c:	210a      	movs	r1, #10
 8001b4e:	2008      	movs	r0, #8
 8001b50:	f7ff fb8e 	bl	8001270 <chSchGoSleepTimeoutS>
  __ASM volatile ("cpsie i" : : : "memory");
 8001b54:	b662      	cpsie	i
 8001b56:	7823      	ldrb	r3, [r4, #0]
 8001b58:	2b00      	cmp	r3, #0
 8001b5a:	d0f6      	beq.n	8001b4a <ee_ws2812b_render.isra.0+0xa>
    dma_ready = false;
 8001b5c:	2300      	movs	r3, #0
    dmaStreamDisable(dma_stream);
 8001b5e:	200f      	movs	r0, #15
 8001b60:	4d1e      	ldr	r5, [pc, #120]	@ (8001bdc <ee_ws2812b_render.isra.0+0x9c>)
    dma_ready = false;
 8001b62:	7023      	strb	r3, [r4, #0]
    dmaStreamDisable(dma_stream);
 8001b64:	682a      	ldr	r2, [r5, #0]
    dmaStreamEnable(dma_stream);
 8001b66:	2601      	movs	r6, #1
    dmaStreamDisable(dma_stream);
 8001b68:	6853      	ldr	r3, [r2, #4]
 8001b6a:	6819      	ldr	r1, [r3, #0]
 8001b6c:	4381      	bics	r1, r0
 8001b6e:	6019      	str	r1, [r3, #0]
 8001b70:	7c11      	ldrb	r1, [r2, #16]
 8001b72:	6810      	ldr	r0, [r2, #0]
 8001b74:	220e      	movs	r2, #14
 8001b76:	408a      	lsls	r2, r1
    dmaStreamSetMode(dma_stream, DMA_MODE_2); // No MINC for repeated zero
 8001b78:	218d      	movs	r1, #141	@ 0x8d
 8001b7a:	0049      	lsls	r1, r1, #1
    dmaStreamDisable(dma_stream);
 8001b7c:	6042      	str	r2, [r0, #4]
    dmaStreamSetMode(dma_stream, DMA_MODE_2); // No MINC for repeated zero
 8001b7e:	6019      	str	r1, [r3, #0]
    dmaStreamSetMemory0(dma_stream, &pwm_zero_buf);
 8001b80:	4917      	ldr	r1, [pc, #92]	@ (8001be0 <ee_ws2812b_render.isra.0+0xa0>)
 8001b82:	60d9      	str	r1, [r3, #12]
    dmaStreamSetTransactionSize(dma_stream, PWM_RESET_BUFFER_SIZE);
 8001b84:	2128      	movs	r1, #40	@ 0x28
 8001b86:	6059      	str	r1, [r3, #4]
    dmaStreamEnable(dma_stream);
 8001b88:	6819      	ldr	r1, [r3, #0]
 8001b8a:	4331      	orrs	r1, r6
 8001b8c:	6019      	str	r1, [r3, #0]
    uint8_t status = 0;

    // First reset the render
    status = ee_ws2812b_reset_render();

    while (!dma_ready) {
 8001b8e:	7821      	ldrb	r1, [r4, #0]
 8001b90:	2900      	cmp	r1, #0
 8001b92:	d10e      	bne.n	8001bb2 <ee_ws2812b_render.isra.0+0x72>
  __ASM volatile ("cpsid i" : : : "memory");
 8001b94:	b672      	cpsid	i
 8001b96:	210a      	movs	r1, #10
 8001b98:	2008      	movs	r0, #8
 8001b9a:	f7ff fb69 	bl	8001270 <chSchGoSleepTimeoutS>
  __ASM volatile ("cpsie i" : : : "memory");
 8001b9e:	b662      	cpsie	i
 8001ba0:	7823      	ldrb	r3, [r4, #0]
 8001ba2:	2b00      	cmp	r3, #0
 8001ba4:	d0f6      	beq.n	8001b94 <ee_ws2812b_render.isra.0+0x54>
    dma_ready = false;


    // Write the actual data

    dmaStreamDisable(dma_stream);
 8001ba6:	682a      	ldr	r2, [r5, #0]
 8001ba8:	7c11      	ldrb	r1, [r2, #16]
 8001baa:	6853      	ldr	r3, [r2, #4]
 8001bac:	6810      	ldr	r0, [r2, #0]
 8001bae:	220e      	movs	r2, #14
 8001bb0:	408a      	lsls	r2, r1
    dma_ready = false;
 8001bb2:	2100      	movs	r1, #0
 8001bb4:	7021      	strb	r1, [r4, #0]
    dmaStreamDisable(dma_stream);
 8001bb6:	240f      	movs	r4, #15
 8001bb8:	6819      	ldr	r1, [r3, #0]
 8001bba:	43a1      	bics	r1, r4
 8001bbc:	6019      	str	r1, [r3, #0]
 8001bbe:	6042      	str	r2, [r0, #4]
    dmaStreamSetMode(dma_stream, DMA_MODE_1);
 8001bc0:	22cd      	movs	r2, #205	@ 0xcd
 8001bc2:	0052      	lsls	r2, r2, #1
 8001bc4:	601a      	str	r2, [r3, #0]
    dmaStreamSetMemory0(dma_stream, pwm_buf);
 8001bc6:	4a07      	ldr	r2, [pc, #28]	@ (8001be4 <ee_ws2812b_render.isra.0+0xa4>)
    dmaStreamSetTransactionSize(dma_stream, PWM_BUFFER_SIZE);
    dmaStreamEnable(dma_stream);
 8001bc8:	2101      	movs	r1, #1
    dmaStreamSetMemory0(dma_stream, pwm_buf);
 8001bca:	60da      	str	r2, [r3, #12]
    dmaStreamSetTransactionSize(dma_stream, PWM_BUFFER_SIZE);
 8001bcc:	2219      	movs	r2, #25
 8001bce:	605a      	str	r2, [r3, #4]
    dmaStreamEnable(dma_stream);
 8001bd0:	681a      	ldr	r2, [r3, #0]
 8001bd2:	430a      	orrs	r2, r1
 8001bd4:	601a      	str	r2, [r3, #0]

    return status;
}
 8001bd6:	bd70      	pop	{r4, r5, r6, pc}
 8001bd8:	20000800 	.word	0x20000800
 8001bdc:	200009d8 	.word	0x200009d8
 8001be0:	08003f24 	.word	0x08003f24
 8001be4:	20000938 	.word	0x20000938
	...

08001bf0 <usb_event>:
static void usb_event(USBDriver *usbp, usbevent_t event) {
 8001bf0:	b5f8      	push	{r3, r4, r5, r6, r7, lr}
 8001bf2:	46ce      	mov	lr, r9
 8001bf4:	4647      	mov	r7, r8
 8001bf6:	0004      	movs	r4, r0
 8001bf8:	b580      	push	{r7, lr}
  switch (event) {
 8001bfa:	2904      	cmp	r1, #4
 8001bfc:	d900      	bls.n	8001c00 <usb_event+0x10>
 8001bfe:	e0da      	b.n	8001db6 <usb_event+0x1c6>
 8001c00:	1e4b      	subs	r3, r1, #1
 8001c02:	2b01      	cmp	r3, #1
 8001c04:	d900      	bls.n	8001c08 <usb_event+0x18>
 8001c06:	e07f      	b.n	8001d08 <usb_event+0x118>
 8001c08:	2902      	cmp	r1, #2
 8001c0a:	d179      	bne.n	8001d00 <usb_event+0x110>
  __ASM volatile ("cpsid i" : : : "memory");
 8001c0c:	b672      	cpsid	i
  usbp->epc[ep] = epcp;
 8001c0e:	4b71      	ldr	r3, [pc, #452]	@ (8001dd4 <usb_event+0x1e4>)
    memset(epcp->in_state, 0, sizeof(USBInEndpointState));
 8001c10:	2210      	movs	r2, #16
  usbp->epc[ep] = epcp;
 8001c12:	6103      	str	r3, [r0, #16]
    memset(epcp->in_state, 0, sizeof(USBInEndpointState));
 8001c14:	2100      	movs	r1, #0
 8001c16:	4870      	ldr	r0, [pc, #448]	@ (8001dd8 <usb_event+0x1e8>)
 8001c18:	f7fe fae0 	bl	80001dc <memset>
    memset(epcp->out_state, 0, sizeof(USBOutEndpointState));
 8001c1c:	2210      	movs	r2, #16
 8001c1e:	2100      	movs	r1, #0
 8001c20:	486e      	ldr	r0, [pc, #440]	@ (8001ddc <usb_event+0x1ec>)
 8001c22:	f7fe fadb 	bl	80001dc <memset>
  usb_lld_init_endpoint(usbp, ep);
 8001c26:	0020      	movs	r0, r4
 8001c28:	2101      	movs	r1, #1
 8001c2a:	f7fe fd01 	bl	8000630 <usb_lld_init_endpoint>
  usbp->epc[ep] = epcp;
 8001c2e:	4b6c      	ldr	r3, [pc, #432]	@ (8001de0 <usb_event+0x1f0>)
    memset(epcp->in_state, 0, sizeof(USBInEndpointState));
 8001c30:	2210      	movs	r2, #16
  usbp->epc[ep] = epcp;
 8001c32:	6163      	str	r3, [r4, #20]
    memset(epcp->in_state, 0, sizeof(USBInEndpointState));
 8001c34:	2100      	movs	r1, #0
 8001c36:	486b      	ldr	r0, [pc, #428]	@ (8001de4 <usb_event+0x1f4>)
 8001c38:	f7fe fad0 	bl	80001dc <memset>
  usb_lld_init_endpoint(usbp, ep);
 8001c3c:	0020      	movs	r0, r4
 8001c3e:	2102      	movs	r1, #2
 8001c40:	f7fe fcf6 	bl	8000630 <usb_lld_init_endpoint>
  ibqp->bcounter  = 0;
 8001c44:	4c68      	ldr	r4, [pc, #416]	@ (8001de8 <usb_event+0x1f8>)
 8001c46:	2300      	movs	r3, #0
 *
 * @iclass
 */
void chThdDequeueAllI(threads_queue_t *tqp, msg_t msg) {

  while (ch_queue_notempty(&tqp->queue)) {
 8001c48:	0020      	movs	r0, r4
  ibqp->brdptr    = ibqp->buffers;
 8001c4a:	6b22      	ldr	r2, [r4, #48]	@ 0x30
  return (bool)(qp->next != qp);
 8001c4c:	68e1      	ldr	r1, [r4, #12]
 8001c4e:	300c      	adds	r0, #12
  ibqp->bcounter  = 0;
 8001c50:	61a3      	str	r3, [r4, #24]
  ibqp->bwrptr    = ibqp->buffers;
 8001c52:	61e2      	str	r2, [r4, #28]
 8001c54:	6222      	str	r2, [r4, #32]
  ibqp->ptr       = NULL;
 8001c56:	6363      	str	r3, [r4, #52]	@ 0x34
  ibqp->top       = NULL;
 8001c58:	63a3      	str	r3, [r4, #56]	@ 0x38
 8001c5a:	4281      	cmp	r1, r0
 8001c5c:	d01b      	beq.n	8001c96 <usb_event+0xa6>
  tp->u.rdymsg = msg;
 8001c5e:	3b02      	subs	r3, #2
 8001c60:	4698      	mov	r8, r3
  tp->state = CH_STATE_READY;
 8001c62:	3326      	adds	r3, #38	@ 0x26
  qp->next->prev = qp;
 8001c64:	4681      	mov	r9, r0
 8001c66:	469c      	mov	ip, r3
 8001c68:	2700      	movs	r7, #0
 8001c6a:	464a      	mov	r2, r9
 8001c6c:	000b      	movs	r3, r1
  qp->next       = p->next;
 8001c6e:	6809      	ldr	r1, [r1, #0]
 8001c70:	60e1      	str	r1, [r4, #12]
  qp->next->prev = qp;
 8001c72:	604a      	str	r2, [r1, #4]
 8001c74:	4642      	mov	r2, r8
 8001c76:	629a      	str	r2, [r3, #40]	@ 0x28
 8001c78:	4662      	mov	r2, ip
 8001c7a:	549f      	strb	r7, [r3, r2]
  return threadref(ch_pqueue_insert_behind(&tp->owner->rlist.pqueue,
 8001c7c:	699a      	ldr	r2, [r3, #24]
  } while (unlikely(pqp->prio >= p->prio));
 8001c7e:	689e      	ldr	r6, [r3, #8]
    pqp = pqp->next;
 8001c80:	6812      	ldr	r2, [r2, #0]
  } while (unlikely(pqp->prio >= p->prio));
 8001c82:	6895      	ldr	r5, [r2, #8]
 8001c84:	42b5      	cmp	r5, r6
 8001c86:	d2fb      	bcs.n	8001c80 <usb_event+0x90>
  p->prev       = pqp->prev;
 8001c88:	6855      	ldr	r5, [r2, #4]
  p->next       = pqp;
 8001c8a:	601a      	str	r2, [r3, #0]
  p->prev       = pqp->prev;
 8001c8c:	605d      	str	r5, [r3, #4]
  p->prev->next = p;
 8001c8e:	602b      	str	r3, [r5, #0]
  pqp->prev     = p;
 8001c90:	6053      	str	r3, [r2, #4]
 8001c92:	4281      	cmp	r1, r0
 8001c94:	d1e9      	bne.n	8001c6a <usb_event+0x7a>
 8001c96:	0025      	movs	r5, r4
  bqResumeX(&sdup->ibqueue);
 8001c98:	2300      	movs	r3, #0
  obqp->bcounter  = bqSizeX(obqp);
 8001c9a:	6e62      	ldr	r2, [r4, #100]	@ 0x64
  return (bool)(qp->next != qp);
 8001c9c:	6c61      	ldr	r1, [r4, #68]	@ 0x44
 8001c9e:	6522      	str	r2, [r4, #80]	@ 0x50
  obqp->brdptr    = obqp->buffers;
 8001ca0:	6ea2      	ldr	r2, [r4, #104]	@ 0x68
 8001ca2:	3544      	adds	r5, #68	@ 0x44
 8001ca4:	7523      	strb	r3, [r4, #20]
  obqp->bwrptr    = obqp->buffers;
 8001ca6:	6562      	str	r2, [r4, #84]	@ 0x54
 8001ca8:	65a2      	str	r2, [r4, #88]	@ 0x58
  obqp->ptr       = NULL;
 8001caa:	66e3      	str	r3, [r4, #108]	@ 0x6c
  obqp->top       = NULL;
 8001cac:	6723      	str	r3, [r4, #112]	@ 0x70
 8001cae:	42a9      	cmp	r1, r5
 8001cb0:	d01b      	beq.n	8001cea <usb_event+0xfa>
 8001cb2:	3b02      	subs	r3, #2
 8001cb4:	4698      	mov	r8, r3
  tp->state = CH_STATE_READY;
 8001cb6:	3326      	adds	r3, #38	@ 0x26
  qp->next->prev = qp;
 8001cb8:	46a9      	mov	r9, r5
 8001cba:	469c      	mov	ip, r3
 8001cbc:	2700      	movs	r7, #0
 8001cbe:	464a      	mov	r2, r9
 8001cc0:	000b      	movs	r3, r1
  qp->next       = p->next;
 8001cc2:	6809      	ldr	r1, [r1, #0]
 8001cc4:	6461      	str	r1, [r4, #68]	@ 0x44
  qp->next->prev = qp;
 8001cc6:	604a      	str	r2, [r1, #4]
 8001cc8:	4642      	mov	r2, r8
 8001cca:	629a      	str	r2, [r3, #40]	@ 0x28
 8001ccc:	4662      	mov	r2, ip
 8001cce:	549f      	strb	r7, [r3, r2]
  return threadref(ch_pqueue_insert_behind(&tp->owner->rlist.pqueue,
 8001cd0:	699a      	ldr	r2, [r3, #24]
  } while (unlikely(pqp->prio >= p->prio));
 8001cd2:	689e      	ldr	r6, [r3, #8]
    pqp = pqp->next;
 8001cd4:	6812      	ldr	r2, [r2, #0]
  } while (unlikely(pqp->prio >= p->prio));
 8001cd6:	6890      	ldr	r0, [r2, #8]
 8001cd8:	42b0      	cmp	r0, r6
 8001cda:	d2fb      	bcs.n	8001cd4 <usb_event+0xe4>
  p->prev       = pqp->prev;
 8001cdc:	6850      	ldr	r0, [r2, #4]
  p->next       = pqp;
 8001cde:	601a      	str	r2, [r3, #0]
  p->prev       = pqp->prev;
 8001ce0:	6058      	str	r0, [r3, #4]
  p->prev->next = p;
 8001ce2:	6003      	str	r3, [r0, #0]
  pqp->prev     = p;
 8001ce4:	6053      	str	r3, [r2, #4]
 8001ce6:	42a9      	cmp	r1, r5
 8001ce8:	d1e9      	bne.n	8001cbe <usb_event+0xce>
  bqResumeX(&sdup->obqueue);
 8001cea:	234c      	movs	r3, #76	@ 0x4c
 8001cec:	2200      	movs	r2, #0
  chEvtBroadcastFlagsI(esp, flags);
 8001cee:	2101      	movs	r1, #1
 8001cf0:	1d20      	adds	r0, r4, #4
 8001cf2:	54e2      	strb	r2, [r4, r3]
 8001cf4:	f7ff f984 	bl	8001000 <chEvtBroadcastFlagsI>
  (void) sdu_start_receive(sdup);
 8001cf8:	0020      	movs	r0, r4
 8001cfa:	f7fe fc19 	bl	8000530 <sdu_start_receive.isra.0>
  __ASM volatile ("cpsie i" : : : "memory");
 8001cfe:	b662      	cpsie	i
}
 8001d00:	bcc0      	pop	{r6, r7}
 8001d02:	46b9      	mov	r9, r7
 8001d04:	46b0      	mov	r8, r6
 8001d06:	bdf8      	pop	{r3, r4, r5, r6, r7, pc}
  __ASM volatile ("cpsid i" : : : "memory");
 8001d08:	b672      	cpsid	i
  if (bqIsSuspendedX(&sdup->ibqueue) && bqIsSuspendedX(&sdup->obqueue)) {
 8001d0a:	4c37      	ldr	r4, [pc, #220]	@ (8001de8 <usb_event+0x1f8>)
 8001d0c:	7d23      	ldrb	r3, [r4, #20]
 8001d0e:	2b00      	cmp	r3, #0
 8001d10:	d003      	beq.n	8001d1a <usb_event+0x12a>
 8001d12:	234c      	movs	r3, #76	@ 0x4c
 8001d14:	5ce3      	ldrb	r3, [r4, r3]
 8001d16:	2b00      	cmp	r3, #0
 8001d18:	d15a      	bne.n	8001dd0 <usb_event+0x1e0>
 8001d1a:	4d34      	ldr	r5, [pc, #208]	@ (8001dec <usb_event+0x1fc>)
 8001d1c:	2102      	movs	r1, #2
 8001d1e:	0028      	movs	r0, r5
 8001d20:	f7ff f96e 	bl	8001000 <chEvtBroadcastFlagsI>
  bqSuspendI(&sdup->ibqueue);
 8001d24:	2201      	movs	r2, #1
  return (bool)(qp->next != qp);
 8001d26:	68a9      	ldr	r1, [r5, #8]
 8001d28:	742a      	strb	r2, [r5, #16]
 8001d2a:	3508      	adds	r5, #8
 8001d2c:	42a9      	cmp	r1, r5
 8001d2e:	d01d      	beq.n	8001d6c <usb_event+0x17c>
 8001d30:	2302      	movs	r3, #2
 8001d32:	425b      	negs	r3, r3
 8001d34:	4698      	mov	r8, r3
  tp->state = CH_STATE_READY;
 8001d36:	3326      	adds	r3, #38	@ 0x26
 8001d38:	0028      	movs	r0, r5
  qp->next->prev = qp;
 8001d3a:	46a9      	mov	r9, r5
 8001d3c:	469c      	mov	ip, r3
 8001d3e:	2700      	movs	r7, #0
 8001d40:	464a      	mov	r2, r9
 8001d42:	000b      	movs	r3, r1
  qp->next       = p->next;
 8001d44:	6809      	ldr	r1, [r1, #0]
 8001d46:	60e1      	str	r1, [r4, #12]
  qp->next->prev = qp;
 8001d48:	604a      	str	r2, [r1, #4]
 8001d4a:	4642      	mov	r2, r8
 8001d4c:	629a      	str	r2, [r3, #40]	@ 0x28
 8001d4e:	4662      	mov	r2, ip
 8001d50:	549f      	strb	r7, [r3, r2]
  return threadref(ch_pqueue_insert_behind(&tp->owner->rlist.pqueue,
 8001d52:	699a      	ldr	r2, [r3, #24]
  } while (unlikely(pqp->prio >= p->prio));
 8001d54:	689e      	ldr	r6, [r3, #8]
    pqp = pqp->next;
 8001d56:	6812      	ldr	r2, [r2, #0]
  } while (unlikely(pqp->prio >= p->prio));
 8001d58:	6895      	ldr	r5, [r2, #8]
 8001d5a:	42b5      	cmp	r5, r6
 8001d5c:	d2fb      	bcs.n	8001d56 <usb_event+0x166>
  p->prev       = pqp->prev;
 8001d5e:	6855      	ldr	r5, [r2, #4]
  p->next       = pqp;
 8001d60:	601a      	str	r2, [r3, #0]
  p->prev       = pqp->prev;
 8001d62:	605d      	str	r5, [r3, #4]
  p->prev->next = p;
 8001d64:	602b      	str	r3, [r5, #0]
  pqp->prev     = p;
 8001d66:	6053      	str	r3, [r2, #4]
 8001d68:	4281      	cmp	r1, r0
 8001d6a:	d1e9      	bne.n	8001d40 <usb_event+0x150>
 8001d6c:	0025      	movs	r5, r4
  bqSuspendI(&sdup->obqueue);
 8001d6e:	234c      	movs	r3, #76	@ 0x4c
 8001d70:	2201      	movs	r2, #1
  return (bool)(qp->next != qp);
 8001d72:	6c61      	ldr	r1, [r4, #68]	@ 0x44
 8001d74:	3544      	adds	r5, #68	@ 0x44
 8001d76:	54e2      	strb	r2, [r4, r3]
 8001d78:	42a9      	cmp	r1, r5
 8001d7a:	d029      	beq.n	8001dd0 <usb_event+0x1e0>
 8001d7c:	3b4e      	subs	r3, #78	@ 0x4e
 8001d7e:	4698      	mov	r8, r3
  tp->state = CH_STATE_READY;
 8001d80:	3326      	adds	r3, #38	@ 0x26
  qp->next->prev = qp;
 8001d82:	46a9      	mov	r9, r5
 8001d84:	469c      	mov	ip, r3
 8001d86:	2700      	movs	r7, #0
 8001d88:	464a      	mov	r2, r9
 8001d8a:	000b      	movs	r3, r1
  qp->next       = p->next;
 8001d8c:	6809      	ldr	r1, [r1, #0]
 8001d8e:	6461      	str	r1, [r4, #68]	@ 0x44
  qp->next->prev = qp;
 8001d90:	604a      	str	r2, [r1, #4]
 8001d92:	4642      	mov	r2, r8
 8001d94:	629a      	str	r2, [r3, #40]	@ 0x28
 8001d96:	4662      	mov	r2, ip
 8001d98:	549f      	strb	r7, [r3, r2]
  return threadref(ch_pqueue_insert_behind(&tp->owner->rlist.pqueue,
 8001d9a:	699a      	ldr	r2, [r3, #24]
  } while (unlikely(pqp->prio >= p->prio));
 8001d9c:	689e      	ldr	r6, [r3, #8]
    pqp = pqp->next;
 8001d9e:	6812      	ldr	r2, [r2, #0]
  } while (unlikely(pqp->prio >= p->prio));
 8001da0:	6890      	ldr	r0, [r2, #8]
 8001da2:	42b0      	cmp	r0, r6
 8001da4:	d2fb      	bcs.n	8001d9e <usb_event+0x1ae>
  p->prev       = pqp->prev;
 8001da6:	6850      	ldr	r0, [r2, #4]
  p->next       = pqp;
 8001da8:	601a      	str	r2, [r3, #0]
  p->prev       = pqp->prev;
 8001daa:	6058      	str	r0, [r3, #4]
  p->prev->next = p;
 8001dac:	6003      	str	r3, [r0, #0]
  pqp->prev     = p;
 8001dae:	6053      	str	r3, [r2, #4]
 8001db0:	42a9      	cmp	r1, r5
 8001db2:	d1e9      	bne.n	8001d88 <usb_event+0x198>
 8001db4:	e00c      	b.n	8001dd0 <usb_event+0x1e0>
  switch (event) {
 8001db6:	2905      	cmp	r1, #5
 8001db8:	d1a2      	bne.n	8001d00 <usb_event+0x110>
 8001dba:	b672      	cpsid	i
 8001dbc:	4c0b      	ldr	r4, [pc, #44]	@ (8001dec <usb_event+0x1fc>)
 8001dbe:	2101      	movs	r1, #1
 8001dc0:	0020      	movs	r0, r4
 8001dc2:	f7ff f91d 	bl	8001000 <chEvtBroadcastFlagsI>
  bqResumeX(&sdup->ibqueue);
 8001dc6:	2300      	movs	r3, #0
  bqResumeX(&sdup->obqueue);
 8001dc8:	224c      	movs	r2, #76	@ 0x4c
  bqResumeX(&sdup->ibqueue);
 8001dca:	7423      	strb	r3, [r4, #16]
 8001dcc:	3c04      	subs	r4, #4
  bqResumeX(&sdup->obqueue);
 8001dce:	54a3      	strb	r3, [r4, r2]
  __ASM volatile ("cpsie i" : : : "memory");
 8001dd0:	b662      	cpsie	i
static inline void chSysUnlockFromISR(void) {

  __dbg_check_unlock_from_isr();
  __stats_stop_measure_crit_isr();
  port_unlock_from_isr();
}
 8001dd2:	e795      	b.n	8001d00 <usb_event+0x110>
 8001dd4:	0800403c 	.word	0x0800403c
 8001dd8:	20000910 	.word	0x20000910
 8001ddc:	20000900 	.word	0x20000900
 8001de0:	08004018 	.word	0x08004018
 8001de4:	200008f0 	.word	0x200008f0
 8001de8:	200009dc 	.word	0x200009dc
 8001dec:	200009e0 	.word	0x200009e0

08001df0 <chprintf.constprop.0>:
 * @return              The number of bytes that would have been
 *                      written to @p chp if no stream error occurs
 *
 * @api
 */
int chprintf(BaseSequentialStream *chp, const char *fmt, ...) {
 8001df0:	b40e      	push	{r1, r2, r3}
 8001df2:	b5f0      	push	{r4, r5, r6, r7, lr}
 8001df4:	4657      	mov	r7, sl
 8001df6:	464e      	mov	r6, r9
 8001df8:	4645      	mov	r5, r8
 8001dfa:	46de      	mov	lr, fp
 8001dfc:	b5e0      	push	{r5, r6, r7, lr}
 8001dfe:	b088      	sub	sp, #32
  va_list ap;
  int formatted_bytes;

  va_start(ap, fmt);
 8001e00:	ab12      	add	r3, sp, #72	@ 0x48
 8001e02:	9304      	str	r3, [sp, #16]
 8001e04:	9301      	str	r3, [sp, #4]
  int n = 0;
 8001e06:	2300      	movs	r3, #0
    c = *fmt++;
 8001e08:	4cb5      	ldr	r4, [pc, #724]	@ (80020e0 <chprintf.constprop.0+0x2f0>)
  int n = 0;
 8001e0a:	469a      	mov	sl, r3
    c = *fmt++;
 8001e0c:	2148      	movs	r1, #72	@ 0x48
 8001e0e:	4db5      	ldr	r5, [pc, #724]	@ (80020e4 <chprintf.constprop.0+0x2f4>)
  va_start(ap, fmt);
 8001e10:	1e66      	subs	r6, r4, #1
 8001e12:	e00b      	b.n	8001e2c <chprintf.constprop.0+0x3c>
      streamPut(chp, (uint8_t)c);
 8001e14:	682b      	ldr	r3, [r5, #0]
 8001e16:	0028      	movs	r0, r5
 8001e18:	68db      	ldr	r3, [r3, #12]
 8001e1a:	4798      	blx	r3
      n++;
 8001e1c:	2301      	movs	r3, #1
 8001e1e:	469c      	mov	ip, r3
    c = *fmt++;
 8001e20:	0026      	movs	r6, r4
      n++;
 8001e22:	44e2      	add	sl, ip
    c = *fmt++;
 8001e24:	7831      	ldrb	r1, [r6, #0]
 8001e26:	1c74      	adds	r4, r6, #1
    if (c == 0) {
 8001e28:	2900      	cmp	r1, #0
 8001e2a:	d06e      	beq.n	8001f0a <chprintf.constprop.0+0x11a>
    if (c != '%') {
 8001e2c:	2925      	cmp	r1, #37	@ 0x25
 8001e2e:	d1f1      	bne.n	8001e14 <chprintf.constprop.0+0x24>
    left_align = false;
 8001e30:	2200      	movs	r2, #0
    if (*fmt == '-') {
 8001e32:	7873      	ldrb	r3, [r6, #1]
    left_align = false;
 8001e34:	9200      	str	r2, [sp, #0]
    if (*fmt == '-') {
 8001e36:	2b2d      	cmp	r3, #45	@ 0x2d
 8001e38:	d102      	bne.n	8001e40 <chprintf.constprop.0+0x50>
      left_align = true;
 8001e3a:	3b2c      	subs	r3, #44	@ 0x2c
      fmt++;
 8001e3c:	1cb4      	adds	r4, r6, #2
      left_align = true;
 8001e3e:	9300      	str	r3, [sp, #0]
    if (*fmt == '+') {
 8001e40:	7823      	ldrb	r3, [r4, #0]
    do_sign = false;
 8001e42:	2100      	movs	r1, #0
    if (*fmt == '+') {
 8001e44:	2b2b      	cmp	r3, #43	@ 0x2b
 8001e46:	d102      	bne.n	8001e4e <chprintf.constprop.0+0x5e>
    if (*fmt == '0') {
 8001e48:	7863      	ldrb	r3, [r4, #1]
      do_sign = true;
 8001e4a:	3101      	adds	r1, #1
      fmt++;
 8001e4c:	3401      	adds	r4, #1
    filler = ' ';
 8001e4e:	2220      	movs	r2, #32
 8001e50:	4691      	mov	r9, r2
    if (*fmt == '0') {
 8001e52:	2b30      	cmp	r3, #48	@ 0x30
 8001e54:	d102      	bne.n	8001e5c <chprintf.constprop.0+0x6c>
      filler = '0';
 8001e56:	4699      	mov	r9, r3
      fmt++;
 8001e58:	3401      	adds	r4, #1
    if ( *fmt == '*') {
 8001e5a:	7823      	ldrb	r3, [r4, #0]
 8001e5c:	2b2a      	cmp	r3, #42	@ 0x2a
 8001e5e:	d11e      	bne.n	8001e9e <chprintf.constprop.0+0xae>
    precision = 0;
 8001e60:	2000      	movs	r0, #0
      width = va_arg(ap, int);
 8001e62:	9a01      	ldr	r2, [sp, #4]
      c = *fmt++;
 8001e64:	7863      	ldrb	r3, [r4, #1]
    precision = 0;
 8001e66:	4684      	mov	ip, r0
      width = va_arg(ap, int);
 8001e68:	ca80      	ldmia	r2!, {r7}
      c = *fmt++;
 8001e6a:	1ca6      	adds	r6, r4, #2
    if (c == '.') {
 8001e6c:	2b2e      	cmp	r3, #46	@ 0x2e
 8001e6e:	d031      	beq.n	8001ed4 <chprintf.constprop.0+0xe4>
    if (c == 'l' || c == 'L') {
 8001e70:	2420      	movs	r4, #32
 8001e72:	0018      	movs	r0, r3
 8001e74:	43a0      	bics	r0, r4
 8001e76:	284c      	cmp	r0, #76	@ 0x4c
 8001e78:	d03a      	beq.n	8001ef0 <chprintf.constprop.0+0x100>
      is_long = (c >= 'A') && (c <= 'Z');
 8001e7a:	001c      	movs	r4, r3
 8001e7c:	3c41      	subs	r4, #65	@ 0x41
 8001e7e:	b2e0      	uxtb	r0, r4
 8001e80:	9002      	str	r0, [sp, #8]
    switch (c) {
 8001e82:	2044      	movs	r0, #68	@ 0x44
 8001e84:	4240      	negs	r0, r0
 8001e86:	4680      	mov	r8, r0
 8001e88:	4498      	add	r8, r3
 8001e8a:	4640      	mov	r0, r8
 8001e8c:	b2c0      	uxtb	r0, r0
 8001e8e:	2834      	cmp	r0, #52	@ 0x34
 8001e90:	d846      	bhi.n	8001f20 <chprintf.constprop.0+0x130>
 8001e92:	0080      	lsls	r0, r0, #2
 8001e94:	4680      	mov	r8, r0
 8001e96:	4644      	mov	r4, r8
 8001e98:	4893      	ldr	r0, [pc, #588]	@ (80020e8 <chprintf.constprop.0+0x2f8>)
 8001e9a:	5900      	ldr	r0, [r0, r4]
 8001e9c:	4687      	mov	pc, r0
        c = *fmt++;
 8001e9e:	3401      	adds	r4, #1
        if (c == 0) {
 8001ea0:	2b00      	cmp	r3, #0
 8001ea2:	d032      	beq.n	8001f0a <chprintf.constprop.0+0x11a>
      width = 0;
 8001ea4:	2700      	movs	r7, #0
 8001ea6:	0038      	movs	r0, r7
 8001ea8:	e008      	b.n	8001ebc <chprintf.constprop.0+0xcc>
        if (c == 0) {
 8001eaa:	3401      	adds	r4, #1
          width = width * 10 + c;
 8001eac:	0087      	lsls	r7, r0, #2
        c = *fmt++;
 8001eae:	1e63      	subs	r3, r4, #1
          width = width * 10 + c;
 8001eb0:	183f      	adds	r7, r7, r0
        c = *fmt++;
 8001eb2:	781b      	ldrb	r3, [r3, #0]
          width = width * 10 + c;
 8001eb4:	007f      	lsls	r7, r7, #1
 8001eb6:	19d0      	adds	r0, r2, r7
        if (c == 0) {
 8001eb8:	2b00      	cmp	r3, #0
 8001eba:	d026      	beq.n	8001f0a <chprintf.constprop.0+0x11a>
        if (c >= '0' && c <= '9') {
 8001ebc:	001a      	movs	r2, r3
 8001ebe:	3a30      	subs	r2, #48	@ 0x30
 8001ec0:	b2d2      	uxtb	r2, r2
 8001ec2:	2a09      	cmp	r2, #9
 8001ec4:	d9f1      	bls.n	8001eaa <chprintf.constprop.0+0xba>
 8001ec6:	0007      	movs	r7, r0
    precision = 0;
 8001ec8:	2000      	movs	r0, #0
 8001eca:	0026      	movs	r6, r4
 8001ecc:	4684      	mov	ip, r0
        if (c >= '0' && c <= '9') {
 8001ece:	9a01      	ldr	r2, [sp, #4]
    if (c == '.') {
 8001ed0:	2b2e      	cmp	r3, #46	@ 0x2e
 8001ed2:	d1cd      	bne.n	8001e70 <chprintf.constprop.0+0x80>
      c = *fmt++;
 8001ed4:	7833      	ldrb	r3, [r6, #0]
      if (c == 0) {
 8001ed6:	2b00      	cmp	r3, #0
 8001ed8:	d017      	beq.n	8001f0a <chprintf.constprop.0+0x11a>
      if (c == '*') {
 8001eda:	2b2a      	cmp	r3, #42	@ 0x2a
 8001edc:	d15a      	bne.n	8001f94 <chprintf.constprop.0+0x1a4>
        precision = va_arg(ap, int);
 8001ede:	ca08      	ldmia	r2!, {r3}
    if (c == 'l' || c == 'L') {
 8001ee0:	2420      	movs	r4, #32
        precision = va_arg(ap, int);
 8001ee2:	469c      	mov	ip, r3
        c = *fmt++;
 8001ee4:	7873      	ldrb	r3, [r6, #1]
 8001ee6:	3602      	adds	r6, #2
    if (c == 'l' || c == 'L') {
 8001ee8:	0018      	movs	r0, r3
 8001eea:	43a0      	bics	r0, r4
 8001eec:	284c      	cmp	r0, #76	@ 0x4c
 8001eee:	d1c4      	bne.n	8001e7a <chprintf.constprop.0+0x8a>
      c = *fmt++;
 8001ef0:	7833      	ldrb	r3, [r6, #0]
      if (c == 0) {
 8001ef2:	2b00      	cmp	r3, #0
 8001ef4:	d009      	beq.n	8001f0a <chprintf.constprop.0+0x11a>
    switch (c) {
 8001ef6:	001c      	movs	r4, r3
 8001ef8:	3c44      	subs	r4, #68	@ 0x44
 8001efa:	b2e4      	uxtb	r4, r4
      c = *fmt++;
 8001efc:	3601      	adds	r6, #1
    switch (c) {
 8001efe:	2c34      	cmp	r4, #52	@ 0x34
 8001f00:	d80e      	bhi.n	8001f20 <chprintf.constprop.0+0x130>
 8001f02:	487a      	ldr	r0, [pc, #488]	@ (80020ec <chprintf.constprop.0+0x2fc>)
 8001f04:	00a4      	lsls	r4, r4, #2
 8001f06:	5904      	ldr	r4, [r0, r4]
 8001f08:	46a7      	mov	pc, r4
  formatted_bytes = chvprintf(chp, fmt, ap);
  va_end(ap);

  return formatted_bytes;
}
 8001f0a:	4650      	mov	r0, sl
 8001f0c:	b008      	add	sp, #32
 8001f0e:	bcf0      	pop	{r4, r5, r6, r7}
 8001f10:	46bb      	mov	fp, r7
 8001f12:	46b2      	mov	sl, r6
 8001f14:	46a9      	mov	r9, r5
 8001f16:	46a0      	mov	r8, r4
 8001f18:	bcf0      	pop	{r4, r5, r6, r7}
 8001f1a:	bc08      	pop	{r3}
 8001f1c:	b003      	add	sp, #12
 8001f1e:	4718      	bx	r3
      break;
 8001f20:	9201      	str	r2, [sp, #4]
      *p++ = c;
 8001f22:	ac05      	add	r4, sp, #20
 8001f24:	7023      	strb	r3, [r4, #0]
    if ((width -= i) < 0) {
 8001f26:	1e7b      	subs	r3, r7, #1
 8001f28:	4698      	mov	r8, r3
 8001f2a:	4642      	mov	r2, r8
 8001f2c:	427b      	negs	r3, r7
 8001f2e:	17db      	asrs	r3, r3, #31
 8001f30:	401a      	ands	r2, r3
    if (left_align == false) {
 8001f32:	9b00      	ldr	r3, [sp, #0]
    if ((width -= i) < 0) {
 8001f34:	4690      	mov	r8, r2
    if (left_align == false) {
 8001f36:	2b00      	cmp	r3, #0
 8001f38:	d000      	beq.n	8001f3c <chprintf.constprop.0+0x14c>
 8001f3a:	e0c0      	b.n	80020be <chprintf.constprop.0+0x2ce>
    if (width < 0) {
 8001f3c:	2f01      	cmp	r7, #1
 8001f3e:	dc00      	bgt.n	8001f42 <chprintf.constprop.0+0x152>
 8001f40:	e0c6      	b.n	80020d0 <chprintf.constprop.0+0x2e0>
 8001f42:	2300      	movs	r3, #0
 8001f44:	469b      	mov	fp, r3
      if ((*s == '-' || *s == '+') && filler == '0') {
 8001f46:	7821      	ldrb	r1, [r4, #0]
 8001f48:	23fd      	movs	r3, #253	@ 0xfd
 8001f4a:	000a      	movs	r2, r1
 8001f4c:	3a2b      	subs	r2, #43	@ 0x2b
 8001f4e:	421a      	tst	r2, r3
 8001f50:	d100      	bne.n	8001f54 <chprintf.constprop.0+0x164>
 8001f52:	e0b7      	b.n	80020c4 <chprintf.constprop.0+0x2d4>
    if (width < 0) {
 8001f54:	4643      	mov	r3, r8
 8001f56:	4f63      	ldr	r7, [pc, #396]	@ (80020e4 <chprintf.constprop.0+0x2f4>)
 8001f58:	9300      	str	r3, [sp, #0]
      width = -width;
 8001f5a:	4643      	mov	r3, r8
 8001f5c:	425b      	negs	r3, r3
 8001f5e:	003a      	movs	r2, r7
 8001f60:	001f      	movs	r7, r3
 8001f62:	002b      	movs	r3, r5
 8001f64:	46a0      	mov	r8, r4
 8001f66:	464d      	mov	r5, r9
 8001f68:	0014      	movs	r4, r2
 8001f6a:	4699      	mov	r9, r3
        streamPut(chp, (uint8_t)filler);
 8001f6c:	6823      	ldr	r3, [r4, #0]
 8001f6e:	0029      	movs	r1, r5
 8001f70:	0020      	movs	r0, r4
 8001f72:	68db      	ldr	r3, [r3, #12]
      } while (++width != 0);
 8001f74:	3701      	adds	r7, #1
        streamPut(chp, (uint8_t)filler);
 8001f76:	4798      	blx	r3
      } while (++width != 0);
 8001f78:	2f00      	cmp	r7, #0
 8001f7a:	d1f7      	bne.n	8001f6c <chprintf.constprop.0+0x17c>
 8001f7c:	464b      	mov	r3, r9
 8001f7e:	46a9      	mov	r9, r5
 8001f80:	001d      	movs	r5, r3
 8001f82:	9b00      	ldr	r3, [sp, #0]
 8001f84:	4644      	mov	r4, r8
 8001f86:	4453      	add	r3, sl
 8001f88:	46b8      	mov	r8, r7
 8001f8a:	469a      	mov	sl, r3
    while (--i >= 0) {
 8001f8c:	465b      	mov	r3, fp
 8001f8e:	2b00      	cmp	r3, #0
 8001f90:	da52      	bge.n	8002038 <chprintf.constprop.0+0x248>
 8001f92:	e060      	b.n	8002056 <chprintf.constprop.0+0x266>
      c = *fmt++;
 8001f94:	3601      	adds	r6, #1
 8001f96:	e008      	b.n	8001faa <chprintf.constprop.0+0x1ba>
          precision = precision * 10 + c;
 8001f98:	0083      	lsls	r3, r0, #2
 8001f9a:	181b      	adds	r3, r3, r0
 8001f9c:	005b      	lsls	r3, r3, #1
          if (c == 0) {
 8001f9e:	3601      	adds	r6, #1
          precision = precision * 10 + c;
 8001fa0:	18e0      	adds	r0, r4, r3
          c = *fmt++;
 8001fa2:	1e73      	subs	r3, r6, #1
 8001fa4:	781b      	ldrb	r3, [r3, #0]
          if (c == 0) {
 8001fa6:	2b00      	cmp	r3, #0
 8001fa8:	d0af      	beq.n	8001f0a <chprintf.constprop.0+0x11a>
        while (c >= '0' && c <= '9') {
 8001faa:	001c      	movs	r4, r3
 8001fac:	3c30      	subs	r4, #48	@ 0x30
 8001fae:	b2e4      	uxtb	r4, r4
 8001fb0:	2c09      	cmp	r4, #9
 8001fb2:	d9f1      	bls.n	8001f98 <chprintf.constprop.0+0x1a8>
 8001fb4:	4684      	mov	ip, r0
 8001fb6:	e75b      	b.n	8001e70 <chprintf.constprop.0+0x80>
      goto unsigned_common;
 8001fb8:	230a      	movs	r3, #10
 8001fba:	4698      	mov	r8, r3
        l = va_arg(ap, int);
 8001fbc:	1d13      	adds	r3, r2, #4
 8001fbe:	9301      	str	r3, [sp, #4]
        l = va_arg(ap, unsigned int);
 8001fc0:	6810      	ldr	r0, [r2, #0]
  q = p + MAX_FILLER;
 8001fc2:	aa04      	add	r2, sp, #16
 8001fc4:	230f      	movs	r3, #15
 8001fc6:	4694      	mov	ip, r2
 8001fc8:	4463      	add	r3, ip
 8001fca:	469b      	mov	fp, r3
 8001fcc:	001c      	movs	r4, r3
 8001fce:	002b      	movs	r3, r5
 8001fd0:	4645      	mov	r5, r8
 8001fd2:	4698      	mov	r8, r3
 8001fd4:	9702      	str	r7, [sp, #8]
 8001fd6:	0029      	movs	r1, r5
    i = (int)(l % radix);
 8001fd8:	0007      	movs	r7, r0
 8001fda:	f7fe fa1f 	bl	800041c <__aeabi_uidivmod>
    i += '0';
 8001fde:	000b      	movs	r3, r1
 8001fe0:	3330      	adds	r3, #48	@ 0x30
    if (i > '9') {
 8001fe2:	2b39      	cmp	r3, #57	@ 0x39
 8001fe4:	dd00      	ble.n	8001fe8 <chprintf.constprop.0+0x1f8>
      i += 'A' - '0' - 10;
 8001fe6:	3307      	adds	r3, #7
    *--q = i;
 8001fe8:	3c01      	subs	r4, #1
 8001fea:	7023      	strb	r3, [r4, #0]
  } while ((ll /= radix) != 0);
 8001fec:	42bd      	cmp	r5, r7
 8001fee:	d9f2      	bls.n	8001fd6 <chprintf.constprop.0+0x1e6>
 8001ff0:	0023      	movs	r3, r4
  i = (int)(p + MAX_FILLER - q);
 8001ff2:	465a      	mov	r2, fp
 8001ff4:	ac05      	add	r4, sp, #20
 8001ff6:	1ad2      	subs	r2, r2, r3
 8001ff8:	4645      	mov	r5, r8
 8001ffa:	0021      	movs	r1, r4
 8001ffc:	4694      	mov	ip, r2
 8001ffe:	4658      	mov	r0, fp
 8002000:	9f02      	ldr	r7, [sp, #8]
    *p++ = *q++;
 8002002:	781a      	ldrb	r2, [r3, #0]
  while (--i);
 8002004:	3301      	adds	r3, #1
    *p++ = *q++;
 8002006:	700a      	strb	r2, [r1, #0]
  while (--i);
 8002008:	3101      	adds	r1, #1
 800200a:	4298      	cmp	r0, r3
 800200c:	d1f9      	bne.n	8002002 <chprintf.constprop.0+0x212>
      p = ch_ltoa(p, l, c);
 800200e:	4663      	mov	r3, ip
 8002010:	18e3      	adds	r3, r4, r3
    i = (int)(p - s);
 8002012:	1b1b      	subs	r3, r3, r4
    if ((width -= i) < 0) {
 8002014:	1aff      	subs	r7, r7, r3
 8002016:	43f9      	mvns	r1, r7
        i--;
 8002018:	3b01      	subs	r3, #1
 800201a:	469b      	mov	fp, r3
    if ((width -= i) < 0) {
 800201c:	17c9      	asrs	r1, r1, #31
    if (left_align == false) {
 800201e:	9b00      	ldr	r3, [sp, #0]
    if ((width -= i) < 0) {
 8002020:	4039      	ands	r1, r7
 8002022:	4688      	mov	r8, r1
    if (left_align == false) {
 8002024:	2b00      	cmp	r3, #0
 8002026:	d1b1      	bne.n	8001f8c <chprintf.constprop.0+0x19c>
    if (width < 0) {
 8002028:	2f00      	cmp	r7, #0
 800202a:	dc8c      	bgt.n	8001f46 <chprintf.constprop.0+0x156>
    while (--i >= 0) {
 800202c:	2300      	movs	r3, #0
 800202e:	4698      	mov	r8, r3
 8002030:	465b      	mov	r3, fp
 8002032:	2b00      	cmp	r3, #0
 8002034:	da00      	bge.n	8002038 <chprintf.constprop.0+0x248>
 8002036:	e6f5      	b.n	8001e24 <chprintf.constprop.0+0x34>
 8002038:	465b      	mov	r3, fp
 800203a:	18e7      	adds	r7, r4, r3
      streamPut(chp, (uint8_t)*s++);
 800203c:	682b      	ldr	r3, [r5, #0]
 800203e:	7821      	ldrb	r1, [r4, #0]
 8002040:	68db      	ldr	r3, [r3, #12]
 8002042:	0028      	movs	r0, r5
 8002044:	4798      	blx	r3
 8002046:	0023      	movs	r3, r4
    while (--i >= 0) {
 8002048:	3401      	adds	r4, #1
 800204a:	429f      	cmp	r7, r3
 800204c:	d1f6      	bne.n	800203c <chprintf.constprop.0+0x24c>
 800204e:	4653      	mov	r3, sl
 8002050:	3301      	adds	r3, #1
 8002052:	445b      	add	r3, fp
 8002054:	469a      	mov	sl, r3
    while (width) {
 8002056:	4643      	mov	r3, r8
 8002058:	2b00      	cmp	r3, #0
 800205a:	d100      	bne.n	800205e <chprintf.constprop.0+0x26e>
 800205c:	e6e2      	b.n	8001e24 <chprintf.constprop.0+0x34>
 800205e:	4644      	mov	r4, r8
 8002060:	464f      	mov	r7, r9
      streamPut(chp, (uint8_t)filler);
 8002062:	682b      	ldr	r3, [r5, #0]
 8002064:	0039      	movs	r1, r7
 8002066:	0028      	movs	r0, r5
 8002068:	68db      	ldr	r3, [r3, #12]
      width--;
 800206a:	3c01      	subs	r4, #1
      streamPut(chp, (uint8_t)filler);
 800206c:	4798      	blx	r3
    while (width) {
 800206e:	2c00      	cmp	r4, #0
 8002070:	d1f7      	bne.n	8002062 <chprintf.constprop.0+0x272>
 8002072:	44c2      	add	sl, r8
 8002074:	e6d6      	b.n	8001e24 <chprintf.constprop.0+0x34>
      if ((s = va_arg(ap, char *)) == 0) {
 8002076:	0013      	movs	r3, r2
 8002078:	cb10      	ldmia	r3!, {r4}
 800207a:	9301      	str	r3, [sp, #4]
 800207c:	2c00      	cmp	r4, #0
 800207e:	d100      	bne.n	8002082 <chprintf.constprop.0+0x292>
 8002080:	e098      	b.n	80021b4 <chprintf.constprop.0+0x3c4>
      if (precision == 0) {
 8002082:	4662      	mov	r2, ip
      for (p = s; *p && (--precision >= 0); p++)
 8002084:	7823      	ldrb	r3, [r4, #0]
      if (precision == 0) {
 8002086:	2a00      	cmp	r2, #0
 8002088:	d025      	beq.n	80020d6 <chprintf.constprop.0+0x2e6>
      for (p = s; *p && (--precision >= 0); p++)
 800208a:	2b00      	cmp	r3, #0
 800208c:	d100      	bne.n	8002090 <chprintf.constprop.0+0x2a0>
 800208e:	e0a2      	b.n	80021d6 <chprintf.constprop.0+0x3e6>
 8002090:	4660      	mov	r0, ip
 8002092:	3801      	subs	r0, #1
 8002094:	d500      	bpl.n	8002098 <chprintf.constprop.0+0x2a8>
 8002096:	e09e      	b.n	80021d6 <chprintf.constprop.0+0x3e6>
 8002098:	3001      	adds	r0, #1
 800209a:	0023      	movs	r3, r4
 800209c:	1820      	adds	r0, r4, r0
 800209e:	e001      	b.n	80020a4 <chprintf.constprop.0+0x2b4>
 80020a0:	4283      	cmp	r3, r0
 80020a2:	d003      	beq.n	80020ac <chprintf.constprop.0+0x2bc>
 80020a4:	785a      	ldrb	r2, [r3, #1]
 80020a6:	3301      	adds	r3, #1
 80020a8:	2a00      	cmp	r2, #0
 80020aa:	d1f9      	bne.n	80020a0 <chprintf.constprop.0+0x2b0>
      filler = ' ';
 80020ac:	2220      	movs	r2, #32
 80020ae:	4691      	mov	r9, r2
 80020b0:	e7af      	b.n	8002012 <chprintf.constprop.0+0x222>
      *p++ = va_arg(ap, int);
 80020b2:	ca08      	ldmia	r2!, {r3}
 80020b4:	9201      	str	r2, [sp, #4]
      filler = ' ';
 80020b6:	2220      	movs	r2, #32
      *p++ = va_arg(ap, int);
 80020b8:	b2db      	uxtb	r3, r3
      filler = ' ';
 80020ba:	4691      	mov	r9, r2
      break;
 80020bc:	e731      	b.n	8001f22 <chprintf.constprop.0+0x132>
    while (--i >= 0) {
 80020be:	2300      	movs	r3, #0
 80020c0:	469b      	mov	fp, r3
 80020c2:	e7b9      	b.n	8002038 <chprintf.constprop.0+0x248>
      if ((*s == '-' || *s == '+') && filler == '0') {
 80020c4:	464b      	mov	r3, r9
 80020c6:	2b30      	cmp	r3, #48	@ 0x30
 80020c8:	d050      	beq.n	800216c <chprintf.constprop.0+0x37c>
 80020ca:	2320      	movs	r3, #32
 80020cc:	4699      	mov	r9, r3
 80020ce:	e741      	b.n	8001f54 <chprintf.constprop.0+0x164>
    while (--i >= 0) {
 80020d0:	469b      	mov	fp, r3
    if (width < 0) {
 80020d2:	4698      	mov	r8, r3
 80020d4:	e7b0      	b.n	8002038 <chprintf.constprop.0+0x248>
      for (p = s; *p && (--precision >= 0); p++)
 80020d6:	2b00      	cmp	r3, #0
 80020d8:	d100      	bne.n	80020dc <chprintf.constprop.0+0x2ec>
 80020da:	e07c      	b.n	80021d6 <chprintf.constprop.0+0x3e6>
 80020dc:	4804      	ldr	r0, [pc, #16]	@ (80020f0 <chprintf.constprop.0+0x300>)
 80020de:	e7db      	b.n	8002098 <chprintf.constprop.0+0x2a8>
 80020e0:	08003c95 	.word	0x08003c95
 80020e4:	200009dc 	.word	0x200009dc
 80020e8:	08003cb8 	.word	0x08003cb8
 80020ec:	08003d8c 	.word	0x08003d8c
 80020f0:	00007ffe 	.word	0x00007ffe
        l = va_arg(ap, int);
 80020f4:	0013      	movs	r3, r2
      if (is_long) {
 80020f6:	9c02      	ldr	r4, [sp, #8]
        l = va_arg(ap, int);
 80020f8:	cb01      	ldmia	r3!, {r0}
 80020fa:	9301      	str	r3, [sp, #4]
      if (is_long) {
 80020fc:	2c19      	cmp	r4, #25
 80020fe:	d946      	bls.n	800218e <chprintf.constprop.0+0x39e>
        *p++ = '-';
 8002100:	ac05      	add	r4, sp, #20
      if (l < 0) {
 8002102:	2800      	cmp	r0, #0
 8002104:	db48      	blt.n	8002198 <chprintf.constprop.0+0x3a8>
    p = tmpbuf;
 8002106:	0023      	movs	r3, r4
        if (do_sign) {
 8002108:	2900      	cmp	r1, #0
 800210a:	d003      	beq.n	8002114 <chprintf.constprop.0+0x324>
          *p++ = '+';
 800210c:	232b      	movs	r3, #43	@ 0x2b
 800210e:	7023      	strb	r3, [r4, #0]
 8002110:	ab04      	add	r3, sp, #16
 8002112:	3305      	adds	r3, #5
  q = p + MAX_FILLER;
 8002114:	220b      	movs	r2, #11
 8002116:	4690      	mov	r8, r2
 8002118:	9303      	str	r3, [sp, #12]
 800211a:	4498      	add	r8, r3
 800211c:	0023      	movs	r3, r4
 800211e:	4644      	mov	r4, r8
 8002120:	469b      	mov	fp, r3
 8002122:	9702      	str	r7, [sp, #8]
    i = (int)(l % radix);
 8002124:	210a      	movs	r1, #10
 8002126:	0007      	movs	r7, r0
 8002128:	f7fe f978 	bl	800041c <__aeabi_uidivmod>
    *--q = i;
 800212c:	3c01      	subs	r4, #1
    i += '0';
 800212e:	3130      	adds	r1, #48	@ 0x30
    *--q = i;
 8002130:	7021      	strb	r1, [r4, #0]
    l /= radix;
 8002132:	0038      	movs	r0, r7
 8002134:	210a      	movs	r1, #10
 8002136:	f7fe f8eb 	bl	8000310 <__udivsi3>
  } while ((ll /= radix) != 0);
 800213a:	2f09      	cmp	r7, #9
 800213c:	dcf2      	bgt.n	8002124 <chprintf.constprop.0+0x334>
  i = (int)(p + MAX_FILLER - q);
 800213e:	465a      	mov	r2, fp
 8002140:	46a3      	mov	fp, r4
 8002142:	0014      	movs	r4, r2
 8002144:	4659      	mov	r1, fp
 8002146:	4642      	mov	r2, r8
 8002148:	1a52      	subs	r2, r2, r1
 800214a:	46a4      	mov	ip, r4
 800214c:	2100      	movs	r1, #0
 800214e:	0014      	movs	r4, r2
 8002150:	465a      	mov	r2, fp
 8002152:	9f02      	ldr	r7, [sp, #8]
 8002154:	9b03      	ldr	r3, [sp, #12]
    *p++ = *q++;
 8002156:	5c50      	ldrb	r0, [r2, r1]
 8002158:	5458      	strb	r0, [r3, r1]
  while (--i);
 800215a:	3101      	adds	r1, #1
 800215c:	42a1      	cmp	r1, r4
 800215e:	d1fa      	bne.n	8002156 <chprintf.constprop.0+0x366>
 8002160:	4664      	mov	r4, ip
      p = ch_ltoa(p, l, 10);
 8002162:	185b      	adds	r3, r3, r1
 8002164:	e755      	b.n	8002012 <chprintf.constprop.0+0x222>
    switch (c) {
 8002166:	2310      	movs	r3, #16
 8002168:	4698      	mov	r8, r3
 800216a:	e727      	b.n	8001fbc <chprintf.constprop.0+0x1cc>
      n++;
 800216c:	3b2f      	subs	r3, #47	@ 0x2f
 800216e:	469c      	mov	ip, r3
        streamPut(chp, (uint8_t)*s++);
 8002170:	4f21      	ldr	r7, [pc, #132]	@ (80021f8 <chprintf.constprop.0+0x408>)
      n++;
 8002172:	44e2      	add	sl, ip
        streamPut(chp, (uint8_t)*s++);
 8002174:	683b      	ldr	r3, [r7, #0]
 8002176:	0038      	movs	r0, r7
 8002178:	68db      	ldr	r3, [r3, #12]
 800217a:	4798      	blx	r3
    while (--i >= 0) {
 800217c:	2301      	movs	r3, #1
 800217e:	425b      	negs	r3, r3
 8002180:	469c      	mov	ip, r3
 8002182:	4643      	mov	r3, r8
        streamPut(chp, (uint8_t)*s++);
 8002184:	3401      	adds	r4, #1
    while (--i >= 0) {
 8002186:	44e3      	add	fp, ip
 8002188:	9300      	str	r3, [sp, #0]
 800218a:	e6e6      	b.n	8001f5a <chprintf.constprop.0+0x16a>
 800218c:	1d13      	adds	r3, r2, #4
        l = va_arg(ap, long);
 800218e:	6810      	ldr	r0, [r2, #0]
 8002190:	9301      	str	r3, [sp, #4]
        *p++ = '-';
 8002192:	ac05      	add	r4, sp, #20
      if (l < 0) {
 8002194:	2800      	cmp	r0, #0
 8002196:	dab6      	bge.n	8002106 <chprintf.constprop.0+0x316>
        *p++ = '-';
 8002198:	232d      	movs	r3, #45	@ 0x2d
 800219a:	7023      	strb	r3, [r4, #0]
 800219c:	ab04      	add	r3, sp, #16
        l = -l;
 800219e:	4240      	negs	r0, r0
        *p++ = '-';
 80021a0:	3305      	adds	r3, #5
 80021a2:	e7b7      	b.n	8002114 <chprintf.constprop.0+0x324>
        l = va_arg(ap, int);
 80021a4:	1d13      	adds	r3, r2, #4
 80021a6:	9301      	str	r3, [sp, #4]
 80021a8:	2310      	movs	r3, #16
 80021aa:	4698      	mov	r8, r3
 80021ac:	e708      	b.n	8001fc0 <chprintf.constprop.0+0x1d0>
    switch (c) {
 80021ae:	2308      	movs	r3, #8
 80021b0:	4698      	mov	r8, r3
 80021b2:	e703      	b.n	8001fbc <chprintf.constprop.0+0x1cc>
      if (precision == 0) {
 80021b4:	4663      	mov	r3, ip
        s = "(null)";
 80021b6:	4c11      	ldr	r4, [pc, #68]	@ (80021fc <chprintf.constprop.0+0x40c>)
      if (precision == 0) {
 80021b8:	2b00      	cmp	r3, #0
 80021ba:	d000      	beq.n	80021be <chprintf.constprop.0+0x3ce>
 80021bc:	e768      	b.n	8002090 <chprintf.constprop.0+0x2a0>
      for (p = s; *p && (--precision >= 0); p++)
 80021be:	4810      	ldr	r0, [pc, #64]	@ (8002200 <chprintf.constprop.0+0x410>)
 80021c0:	e76a      	b.n	8002098 <chprintf.constprop.0+0x2a8>
        l = va_arg(ap, int);
 80021c2:	1d13      	adds	r3, r2, #4
 80021c4:	9301      	str	r3, [sp, #4]
 80021c6:	2308      	movs	r3, #8
 80021c8:	4698      	mov	r8, r3
 80021ca:	e6f9      	b.n	8001fc0 <chprintf.constprop.0+0x1d0>
 80021cc:	1d13      	adds	r3, r2, #4
 80021ce:	9301      	str	r3, [sp, #4]
 80021d0:	230a      	movs	r3, #10
 80021d2:	4698      	mov	r8, r3
 80021d4:	e6f4      	b.n	8001fc0 <chprintf.constprop.0+0x1d0>
    if ((width -= i) < 0) {
 80021d6:	43fb      	mvns	r3, r7
 80021d8:	17db      	asrs	r3, r3, #31
 80021da:	403b      	ands	r3, r7
 80021dc:	4698      	mov	r8, r3
    if (left_align == false) {
 80021de:	2320      	movs	r3, #32
 80021e0:	4699      	mov	r9, r3
 80021e2:	9b00      	ldr	r3, [sp, #0]
 80021e4:	2b00      	cmp	r3, #0
 80021e6:	d000      	beq.n	80021ea <chprintf.constprop.0+0x3fa>
 80021e8:	e735      	b.n	8002056 <chprintf.constprop.0+0x266>
    if (width < 0) {
 80021ea:	2f00      	cmp	r7, #0
 80021ec:	dc00      	bgt.n	80021f0 <chprintf.constprop.0+0x400>
 80021ee:	e619      	b.n	8001e24 <chprintf.constprop.0+0x34>
 80021f0:	2301      	movs	r3, #1
 80021f2:	425b      	negs	r3, r3
 80021f4:	469b      	mov	fp, r3
 80021f6:	e6ad      	b.n	8001f54 <chprintf.constprop.0+0x164>
 80021f8:	200009dc 	.word	0x200009dc
 80021fc:	08003ca4 	.word	0x08003ca4
 8002200:	00007ffe 	.word	0x00007ffe
	...

08002210 <__cpu_init>:

#if CORTEX_MODEL == 7
  SCB_EnableICache();
  SCB_EnableDCache();
#endif
}
 8002210:	4770      	bx	lr
 8002212:	46c0      	nop			@ (mov r8, r8)
	...

08002220 <__late_init>:
 */
#if !defined(__DOXYGEN__)
__attribute__((weak))
#endif
/*lint -save -e9075 [8.4] All symbols are invoked from asm context.*/
void __late_init(void) {}
 8002220:	4770      	bx	lr
 8002222:	46c0      	nop			@ (mov r8, r8)
	...

08002230 <__default_exit>:
#endif
/*lint -save -e9075 [8.4] All symbols are invoked from asm context.*/
void __default_exit(void) {
/*lint -restore*/

  while (true) {
 8002230:	e7fe      	b.n	8002230 <__default_exit>
 8002232:	46c0      	nop			@ (mov r8, r8)
	...

08002240 <__init_ram_areas>:
#endif

/**
 * @brief   Performs the initialization of the various RAM areas.
 */
void __init_ram_areas(void) {
 8002240:	b570      	push	{r4, r5, r6, lr}
#if CRT0_AREAS_NUMBER > 0
  const ram_init_area_t *rap = ram_areas;
 8002242:	4c11      	ldr	r4, [pc, #68]	@ (8002288 <__init_ram_areas+0x48>)
 8002244:	0025      	movs	r5, r4
 8002246:	3580      	adds	r5, #128	@ 0x80

  do {
    uint32_t *tp = rap->init_text_area;
    uint32_t *p = rap->init_area;
 8002248:	6860      	ldr	r0, [r4, #4]

    /* Copying initialization data.*/
    while (p < rap->clear_area) {
 800224a:	68a2      	ldr	r2, [r4, #8]
    uint32_t *tp = rap->init_text_area;
 800224c:	6821      	ldr	r1, [r4, #0]
    while (p < rap->clear_area) {
 800224e:	4290      	cmp	r0, r2
 8002250:	d20a      	bcs.n	8002268 <__init_ram_areas+0x28>
    uint32_t *p = rap->init_area;
 8002252:	0003      	movs	r3, r0
      *p = *tp;
 8002254:	c940      	ldmia	r1!, {r6}
 8002256:	c340      	stmia	r3!, {r6}
    while (p < rap->clear_area) {
 8002258:	4293      	cmp	r3, r2
 800225a:	d3fb      	bcc.n	8002254 <__init_ram_areas+0x14>
 800225c:	3a01      	subs	r2, #1
 800225e:	1a13      	subs	r3, r2, r0
 8002260:	089b      	lsrs	r3, r3, #2
 8002262:	3301      	adds	r3, #1
 8002264:	009b      	lsls	r3, r3, #2
 8002266:	18c0      	adds	r0, r0, r3
      p++;
      tp++;
    }

    /* Zeroing clear area.*/
    while (p < rap->no_init_area) {
 8002268:	68e3      	ldr	r3, [r4, #12]
 800226a:	4283      	cmp	r3, r0
 800226c:	d907      	bls.n	800227e <__init_ram_areas+0x3e>
      *p = 0;
 800226e:	3b01      	subs	r3, #1
 8002270:	1a1a      	subs	r2, r3, r0
 8002272:	0892      	lsrs	r2, r2, #2
 8002274:	3201      	adds	r2, #1
 8002276:	2100      	movs	r1, #0
 8002278:	0092      	lsls	r2, r2, #2
 800227a:	f7fd ffaf 	bl	80001dc <memset>
      p++;
    }
    rap++;
 800227e:	3410      	adds	r4, #16
  }
  while (rap < &ram_areas[CRT0_AREAS_NUMBER]);
 8002280:	42ac      	cmp	r4, r5
 8002282:	d1e1      	bne.n	8002248 <__init_ram_areas+0x8>
     for self-modifying code.*/
  SCB_CleanDCache();
  SCB_InvalidateICache();
#endif
#endif
}
 8002284:	bd70      	pop	{r4, r5, r6, pc}
 8002286:	46c0      	nop			@ (mov r8, r8)
 8002288:	08004124 	.word	0x08004124
 800228c:	00000000 	.word	0x00000000

08002290 <Vector68>:
 */
void dmaServeInterrupt(const stm32_dma_stream_t *dmastp) {
  uint32_t flags;
  uint32_t selfindex = (uint32_t)dmastp->selfindex;

  flags = (dmastp->dma->ISR >> dmastp->shift) & STM32_DMA_ISR_MASK;
 8002290:	210e      	movs	r1, #14
 8002292:	4a1e      	ldr	r2, [pc, #120]	@ (800230c <Vector68+0x7c>)
/**
 * @brief   DMA1 streams 2 and 3 shared ISR.
 *
 * @isr
 */
OSAL_IRQ_HANDLER(STM32_DMA1_CH23_HANDLER) {
 8002294:	b510      	push	{r4, lr}
 8002296:	6813      	ldr	r3, [r2, #0]

  OSAL_IRQ_PROLOGUE();
 8002298:	4674      	mov	r4, lr
 800229a:	091b      	lsrs	r3, r3, #4
 800229c:	4019      	ands	r1, r3
  if (flags & dmastp->channel->CCR) {
 800229e:	4b1c      	ldr	r3, [pc, #112]	@ (8002310 <Vector68+0x80>)
 80022a0:	681b      	ldr	r3, [r3, #0]
 80022a2:	420b      	tst	r3, r1
 80022a4:	d007      	beq.n	80022b6 <Vector68+0x26>
    dmastp->dma->IFCR = flags << dmastp->shift;
 80022a6:	010b      	lsls	r3, r1, #4
 80022a8:	6053      	str	r3, [r2, #4]
    if (dma.streams[selfindex].func) {
 80022aa:	4a1a      	ldr	r2, [pc, #104]	@ (8002314 <Vector68+0x84>)
 80022ac:	6913      	ldr	r3, [r2, #16]
 80022ae:	2b00      	cmp	r3, #0
 80022b0:	d001      	beq.n	80022b6 <Vector68+0x26>
      dma.streams[selfindex].func(dma.streams[selfindex].param, flags);
 80022b2:	6950      	ldr	r0, [r2, #20]
 80022b4:	4798      	blx	r3
  flags = (dmastp->dma->ISR >> dmastp->shift) & STM32_DMA_ISR_MASK;
 80022b6:	210e      	movs	r1, #14
 80022b8:	4a14      	ldr	r2, [pc, #80]	@ (800230c <Vector68+0x7c>)
 80022ba:	6813      	ldr	r3, [r2, #0]
 80022bc:	0a1b      	lsrs	r3, r3, #8
 80022be:	4019      	ands	r1, r3
  if (flags & dmastp->channel->CCR) {
 80022c0:	4b15      	ldr	r3, [pc, #84]	@ (8002318 <Vector68+0x88>)
 80022c2:	681b      	ldr	r3, [r3, #0]
 80022c4:	420b      	tst	r3, r1
 80022c6:	d007      	beq.n	80022d8 <Vector68+0x48>
    dmastp->dma->IFCR = flags << dmastp->shift;
 80022c8:	020b      	lsls	r3, r1, #8
 80022ca:	6053      	str	r3, [r2, #4]
    if (dma.streams[selfindex].func) {
 80022cc:	4a11      	ldr	r2, [pc, #68]	@ (8002314 <Vector68+0x84>)
 80022ce:	6993      	ldr	r3, [r2, #24]
 80022d0:	2b00      	cmp	r3, #0
 80022d2:	d001      	beq.n	80022d8 <Vector68+0x48>
      dma.streams[selfindex].func(dma.streams[selfindex].param, flags);
 80022d4:	69d0      	ldr	r0, [r2, #28]
 80022d6:	4798      	blx	r3
 *
 * @param[in] lr        value of the @p LR register on ISR entry
 */
void __port_irq_epilogue(uint32_t lr) {

  if (lr != 0xFFFFFFF1U) {
 80022d8:	340f      	adds	r4, #15
 80022da:	d100      	bne.n	80022de <Vector68+0x4e>

  /* Check on channel 3.*/
  dmaServeInterrupt(STM32_DMA1_STREAM3);

  OSAL_IRQ_EPILOGUE();
}
 80022dc:	bd10      	pop	{r4, pc}
  __ASM volatile ("cpsid i" : : : "memory");
 80022de:	b672      	cpsid	i
 */
__STATIC_FORCEINLINE uint32_t __get_PSP(void)
{
  uint32_t result;

  __ASM volatile ("MRS %0, psp"  : "=r" (result) );
 80022e0:	f3ef 8309 	mrs	r3, PSP
    /* The extctx structure is pointed by the PSP register.*/
    ectxp = (struct port_extctx *)__get_PSP();

    /* Adding an artificial exception return context, there is no need to
       populate it fully.*/
    ectxp--;
 80022e4:	3b20      	subs	r3, #32
  \details Assigns the given value to the Process Stack Pointer (PSP).
  \param [in]    topOfProcStack  Process Stack Pointer value to set
 */
__STATIC_FORCEINLINE void __set_PSP(uint32_t topOfProcStack)
{
  __ASM volatile ("MSR psp, %0" : : "r" (topOfProcStack) : );
 80022e6:	f383 8809 	msr	PSP, r3

    /* Writing back the modified PSP value.*/
    __set_PSP((uint32_t)ectxp);

    /* Setting up a fake XPSR register value.*/
    ectxp->xpsr = 0x01000000U;
 80022ea:	2280      	movs	r2, #128	@ 0x80
 80022ec:	0452      	lsls	r2, r2, #17
 80022ee:	61da      	str	r2, [r3, #28]
 */
bool chSchIsPreemptionRequired(void) {
  os_instance_t *oip = currcore;
  thread_t *tp = __instance_get_currthread(oip);

  tprio_t p1 = firstprio(&oip->rlist.pqueue);
 80022f0:	4a0a      	ldr	r2, [pc, #40]	@ (800231c <Vector68+0x8c>)
 80022f2:	6811      	ldr	r1, [r2, #0]
  tprio_t p2 = tp->hdr.pqueue.prio;
 80022f4:	68d2      	ldr	r2, [r2, #12]

    /* The exit sequence is different depending on if a preemption is
       required or not.*/
    if (chSchIsPreemptionRequired()) {
 80022f6:	6889      	ldr	r1, [r1, #8]
 80022f8:	6892      	ldr	r2, [r2, #8]
 80022fa:	4291      	cmp	r1, r2
 80022fc:	d902      	bls.n	8002304 <Vector68+0x74>
      /* Preemption is required we need to enforce a context switch.*/
      ectxp->pc = (uint32_t)__port_switch_from_isr;
 80022fe:	4a08      	ldr	r2, [pc, #32]	@ (8002320 <Vector68+0x90>)
 8002300:	619a      	str	r2, [r3, #24]
 8002302:	e7eb      	b.n	80022dc <Vector68+0x4c>
    }
    else {
      /* Preemption not required, we just need to exit the exception
         atomically.*/
      ectxp->pc = (uint32_t)__port_exit_from_isr;
 8002304:	4a07      	ldr	r2, [pc, #28]	@ (8002324 <Vector68+0x94>)
 8002306:	619a      	str	r2, [r3, #24]
 8002308:	e7e8      	b.n	80022dc <Vector68+0x4c>
 800230a:	46c0      	nop			@ (mov r8, r8)
 800230c:	40020000 	.word	0x40020000
 8002310:	4002001c 	.word	0x4002001c
 8002314:	20001080 	.word	0x20001080
 8002318:	40020030 	.word	0x40020030
 800231c:	200010b0 	.word	0x200010b0
 8002320:	080001c7 	.word	0x080001c7
 8002324:	080001ca 	.word	0x080001ca
	...

08002330 <Vector54>:
OSAL_IRQ_HANDLER(STM32_EXTI0_1_HANDLER) {
  uint32_t pr;

  OSAL_IRQ_PROLOGUE();

  extiGetAndClearGroup1((1U << 0) | (1U << 1), pr);
 8002330:	2203      	movs	r2, #3
OSAL_IRQ_HANDLER(STM32_EXTI0_1_HANDLER) {
 8002332:	b5f0      	push	{r4, r5, r6, r7, lr}
 8002334:	4657      	mov	r7, sl
 8002336:	464e      	mov	r6, r9
 8002338:	4645      	mov	r5, r8
  extiGetAndClearGroup1((1U << 0) | (1U << 1), pr);
 800233a:	0010      	movs	r0, r2
 800233c:	4b3a      	ldr	r3, [pc, #232]	@ (8002428 <Vector54+0xf8>)
OSAL_IRQ_HANDLER(STM32_EXTI0_1_HANDLER) {
 800233e:	b4e0      	push	{r5, r6, r7}
  extiGetAndClearGroup1((1U << 0) | (1U << 1), pr);
 8002340:	68de      	ldr	r6, [r3, #12]
 8002342:	6919      	ldr	r1, [r3, #16]
 8002344:	4030      	ands	r0, r6
 8002346:	400a      	ands	r2, r1
 8002348:	430e      	orrs	r6, r1
 800234a:	60d8      	str	r0, [r3, #12]
  OSAL_IRQ_PROLOGUE();
 800234c:	46f2      	mov	sl, lr
  extiGetAndClearGroup1((1U << 0) | (1U << 1), pr);
 800234e:	611a      	str	r2, [r3, #16]

  exti_serve_irq(pr, 0);
 8002350:	07f3      	lsls	r3, r6, #31
 8002352:	d521      	bpl.n	8002398 <Vector54+0x68>
 8002354:	4c35      	ldr	r4, [pc, #212]	@ (800242c <Vector54+0xfc>)
 8002356:	68a3      	ldr	r3, [r4, #8]
 8002358:	2b00      	cmp	r3, #0
 800235a:	d001      	beq.n	8002360 <Vector54+0x30>
 800235c:	68e0      	ldr	r0, [r4, #12]
 800235e:	4798      	blx	r3
  __ASM volatile ("cpsid i" : : : "memory");
 8002360:	b672      	cpsid	i
  return (bool)(qp->next != qp);
 8002362:	6821      	ldr	r1, [r4, #0]
 8002364:	42a1      	cmp	r1, r4
 8002366:	d016      	beq.n	8002396 <Vector54+0x66>
  tp->state = CH_STATE_READY;
 8002368:	2324      	movs	r3, #36	@ 0x24
 800236a:	2500      	movs	r5, #0
 800236c:	4698      	mov	r8, r3
  qp->next       = p->next;
 800236e:	000b      	movs	r3, r1
 8002370:	4642      	mov	r2, r8
 8002372:	6809      	ldr	r1, [r1, #0]
  qp->next->prev = qp;
 8002374:	604c      	str	r4, [r1, #4]
 8002376:	629d      	str	r5, [r3, #40]	@ 0x28
 8002378:	549d      	strb	r5, [r3, r2]
  return threadref(ch_pqueue_insert_behind(&tp->owner->rlist.pqueue,
 800237a:	699a      	ldr	r2, [r3, #24]
  } while (unlikely(pqp->prio >= p->prio));
 800237c:	689f      	ldr	r7, [r3, #8]
  qp->next       = p->next;
 800237e:	6021      	str	r1, [r4, #0]
    pqp = pqp->next;
 8002380:	6812      	ldr	r2, [r2, #0]
  } while (unlikely(pqp->prio >= p->prio));
 8002382:	6890      	ldr	r0, [r2, #8]
 8002384:	42b8      	cmp	r0, r7
 8002386:	d2fb      	bcs.n	8002380 <Vector54+0x50>
  p->prev       = pqp->prev;
 8002388:	6850      	ldr	r0, [r2, #4]
  p->next       = pqp;
 800238a:	601a      	str	r2, [r3, #0]
  p->prev       = pqp->prev;
 800238c:	6058      	str	r0, [r3, #4]
  p->prev->next = p;
 800238e:	6003      	str	r3, [r0, #0]
  pqp->prev     = p;
 8002390:	6053      	str	r3, [r2, #4]
 8002392:	42a1      	cmp	r1, r4
 8002394:	d1eb      	bne.n	800236e <Vector54+0x3e>
  __ASM volatile ("cpsie i" : : : "memory");
 8002396:	b662      	cpsie	i
  exti_serve_irq(pr, 1);
 8002398:	07b6      	lsls	r6, r6, #30
 800239a:	d526      	bpl.n	80023ea <Vector54+0xba>
 800239c:	4c23      	ldr	r4, [pc, #140]	@ (800242c <Vector54+0xfc>)
 800239e:	69a3      	ldr	r3, [r4, #24]
 80023a0:	2b00      	cmp	r3, #0
 80023a2:	d001      	beq.n	80023a8 <Vector54+0x78>
 80023a4:	69e0      	ldr	r0, [r4, #28]
 80023a6:	4798      	blx	r3
  __ASM volatile ("cpsid i" : : : "memory");
 80023a8:	b672      	cpsid	i
 80023aa:	2310      	movs	r3, #16
 80023ac:	469c      	mov	ip, r3
  return (bool)(qp->next != qp);
 80023ae:	6921      	ldr	r1, [r4, #16]
 80023b0:	44a4      	add	ip, r4
 80023b2:	4561      	cmp	r1, ip
 80023b4:	d018      	beq.n	80023e8 <Vector54+0xb8>
  tp->state = CH_STATE_READY;
 80023b6:	3314      	adds	r3, #20
 80023b8:	46e1      	mov	r9, ip
 80023ba:	2700      	movs	r7, #0
 80023bc:	4698      	mov	r8, r3
  qp->next->prev = qp;
 80023be:	4662      	mov	r2, ip
 80023c0:	000b      	movs	r3, r1
  qp->next       = p->next;
 80023c2:	6809      	ldr	r1, [r1, #0]
 80023c4:	6121      	str	r1, [r4, #16]
  qp->next->prev = qp;
 80023c6:	604a      	str	r2, [r1, #4]
 80023c8:	4642      	mov	r2, r8
 80023ca:	629f      	str	r7, [r3, #40]	@ 0x28
 80023cc:	549f      	strb	r7, [r3, r2]
  return threadref(ch_pqueue_insert_behind(&tp->owner->rlist.pqueue,
 80023ce:	699a      	ldr	r2, [r3, #24]
  } while (unlikely(pqp->prio >= p->prio));
 80023d0:	689e      	ldr	r6, [r3, #8]
    pqp = pqp->next;
 80023d2:	6812      	ldr	r2, [r2, #0]
  } while (unlikely(pqp->prio >= p->prio));
 80023d4:	6890      	ldr	r0, [r2, #8]
 80023d6:	42b0      	cmp	r0, r6
 80023d8:	d2fb      	bcs.n	80023d2 <Vector54+0xa2>
  p->prev       = pqp->prev;
 80023da:	6850      	ldr	r0, [r2, #4]
  p->next       = pqp;
 80023dc:	601a      	str	r2, [r3, #0]
  p->prev       = pqp->prev;
 80023de:	6058      	str	r0, [r3, #4]
  p->prev->next = p;
 80023e0:	6003      	str	r3, [r0, #0]
  pqp->prev     = p;
 80023e2:	6053      	str	r3, [r2, #4]
 80023e4:	4549      	cmp	r1, r9
 80023e6:	d1ea      	bne.n	80023be <Vector54+0x8e>
  __ASM volatile ("cpsie i" : : : "memory");
 80023e8:	b662      	cpsie	i
  if (lr != 0xFFFFFFF1U) {
 80023ea:	4653      	mov	r3, sl
 80023ec:	330f      	adds	r3, #15
 80023ee:	d104      	bne.n	80023fa <Vector54+0xca>

  OSAL_IRQ_EPILOGUE();
}
 80023f0:	bce0      	pop	{r5, r6, r7}
 80023f2:	46ba      	mov	sl, r7
 80023f4:	46b1      	mov	r9, r6
 80023f6:	46a8      	mov	r8, r5
 80023f8:	bdf0      	pop	{r4, r5, r6, r7, pc}
  __ASM volatile ("cpsid i" : : : "memory");
 80023fa:	b672      	cpsid	i
  __ASM volatile ("MRS %0, psp"  : "=r" (result) );
 80023fc:	f3ef 8309 	mrs	r3, PSP
    ectxp--;
 8002400:	3b20      	subs	r3, #32
  __ASM volatile ("MSR psp, %0" : : "r" (topOfProcStack) : );
 8002402:	f383 8809 	msr	PSP, r3
    ectxp->xpsr = 0x01000000U;
 8002406:	2280      	movs	r2, #128	@ 0x80
 8002408:	0452      	lsls	r2, r2, #17
 800240a:	61da      	str	r2, [r3, #28]
  tprio_t p1 = firstprio(&oip->rlist.pqueue);
 800240c:	4a08      	ldr	r2, [pc, #32]	@ (8002430 <Vector54+0x100>)
 800240e:	6811      	ldr	r1, [r2, #0]
  tprio_t p2 = tp->hdr.pqueue.prio;
 8002410:	68d2      	ldr	r2, [r2, #12]
    if (chSchIsPreemptionRequired()) {
 8002412:	6889      	ldr	r1, [r1, #8]
 8002414:	6892      	ldr	r2, [r2, #8]
 8002416:	4291      	cmp	r1, r2
 8002418:	d902      	bls.n	8002420 <Vector54+0xf0>
      ectxp->pc = (uint32_t)__port_switch_from_isr;
 800241a:	4a06      	ldr	r2, [pc, #24]	@ (8002434 <Vector54+0x104>)
 800241c:	619a      	str	r2, [r3, #24]
 800241e:	e7e7      	b.n	80023f0 <Vector54+0xc0>
      ectxp->pc = (uint32_t)__port_exit_from_isr;
 8002420:	4a05      	ldr	r2, [pc, #20]	@ (8002438 <Vector54+0x108>)
 8002422:	619a      	str	r2, [r3, #24]
 8002424:	e7e4      	b.n	80023f0 <Vector54+0xc0>
 8002426:	46c0      	nop			@ (mov r8, r8)
 8002428:	40021800 	.word	0x40021800
 800242c:	20000f80 	.word	0x20000f80
 8002430:	200010b0 	.word	0x200010b0
 8002434:	080001c7 	.word	0x080001c7
 8002438:	080001ca 	.word	0x080001ca
 800243c:	00000000 	.word	0x00000000

08002440 <Vector58>:
OSAL_IRQ_HANDLER(STM32_EXTI2_3_HANDLER) {
  uint32_t pr;

  OSAL_IRQ_PROLOGUE();

  extiGetAndClearGroup1((1U << 2) | (1U << 3), pr);
 8002440:	220c      	movs	r2, #12
OSAL_IRQ_HANDLER(STM32_EXTI2_3_HANDLER) {
 8002442:	b5f8      	push	{r3, r4, r5, r6, r7, lr}
 8002444:	465f      	mov	r7, fp
 8002446:	4656      	mov	r6, sl
 8002448:	464d      	mov	r5, r9
 800244a:	4644      	mov	r4, r8
  extiGetAndClearGroup1((1U << 2) | (1U << 3), pr);
 800244c:	0010      	movs	r0, r2
 800244e:	4b3d      	ldr	r3, [pc, #244]	@ (8002544 <Vector58+0x104>)
OSAL_IRQ_HANDLER(STM32_EXTI2_3_HANDLER) {
 8002450:	b4f0      	push	{r4, r5, r6, r7}
  extiGetAndClearGroup1((1U << 2) | (1U << 3), pr);
 8002452:	68de      	ldr	r6, [r3, #12]
 8002454:	6919      	ldr	r1, [r3, #16]
 8002456:	4030      	ands	r0, r6
 8002458:	400a      	ands	r2, r1
 800245a:	430e      	orrs	r6, r1
 800245c:	60d8      	str	r0, [r3, #12]
  OSAL_IRQ_PROLOGUE();
 800245e:	46f3      	mov	fp, lr
  extiGetAndClearGroup1((1U << 2) | (1U << 3), pr);
 8002460:	611a      	str	r2, [r3, #16]

  exti_serve_irq(pr, 2);
 8002462:	0773      	lsls	r3, r6, #29
 8002464:	d526      	bpl.n	80024b4 <Vector58+0x74>
 8002466:	4c38      	ldr	r4, [pc, #224]	@ (8002548 <Vector58+0x108>)
 8002468:	6aa3      	ldr	r3, [r4, #40]	@ 0x28
 800246a:	2b00      	cmp	r3, #0
 800246c:	d001      	beq.n	8002472 <Vector58+0x32>
 800246e:	6ae0      	ldr	r0, [r4, #44]	@ 0x2c
 8002470:	4798      	blx	r3
  __ASM volatile ("cpsid i" : : : "memory");
 8002472:	b672      	cpsid	i
 8002474:	2320      	movs	r3, #32
 8002476:	4698      	mov	r8, r3
  return (bool)(qp->next != qp);
 8002478:	6a21      	ldr	r1, [r4, #32]
 800247a:	44a0      	add	r8, r4
 800247c:	4541      	cmp	r1, r8
 800247e:	d018      	beq.n	80024b2 <Vector58+0x72>
  tp->state = CH_STATE_READY;
 8002480:	3304      	adds	r3, #4
 8002482:	46c2      	mov	sl, r8
 8002484:	2500      	movs	r5, #0
 8002486:	4699      	mov	r9, r3
  qp->next->prev = qp;
 8002488:	4642      	mov	r2, r8
 800248a:	000b      	movs	r3, r1
  qp->next       = p->next;
 800248c:	6809      	ldr	r1, [r1, #0]
 800248e:	6221      	str	r1, [r4, #32]
  qp->next->prev = qp;
 8002490:	604a      	str	r2, [r1, #4]
 8002492:	464a      	mov	r2, r9
 8002494:	629d      	str	r5, [r3, #40]	@ 0x28
 8002496:	549d      	strb	r5, [r3, r2]
  return threadref(ch_pqueue_insert_behind(&tp->owner->rlist.pqueue,
 8002498:	699a      	ldr	r2, [r3, #24]
  } while (unlikely(pqp->prio >= p->prio));
 800249a:	689f      	ldr	r7, [r3, #8]
    pqp = pqp->next;
 800249c:	6812      	ldr	r2, [r2, #0]
  } while (unlikely(pqp->prio >= p->prio));
 800249e:	6890      	ldr	r0, [r2, #8]
 80024a0:	42b8      	cmp	r0, r7
 80024a2:	d2fb      	bcs.n	800249c <Vector58+0x5c>
  p->prev       = pqp->prev;
 80024a4:	6850      	ldr	r0, [r2, #4]
  p->next       = pqp;
 80024a6:	601a      	str	r2, [r3, #0]
  p->prev       = pqp->prev;
 80024a8:	6058      	str	r0, [r3, #4]
  p->prev->next = p;
 80024aa:	6003      	str	r3, [r0, #0]
  pqp->prev     = p;
 80024ac:	6053      	str	r3, [r2, #4]
 80024ae:	4551      	cmp	r1, sl
 80024b0:	d1ea      	bne.n	8002488 <Vector58+0x48>
  __ASM volatile ("cpsie i" : : : "memory");
 80024b2:	b662      	cpsie	i
  exti_serve_irq(pr, 3);
 80024b4:	0736      	lsls	r6, r6, #28
 80024b6:	d526      	bpl.n	8002506 <Vector58+0xc6>
 80024b8:	4c23      	ldr	r4, [pc, #140]	@ (8002548 <Vector58+0x108>)
 80024ba:	6ba3      	ldr	r3, [r4, #56]	@ 0x38
 80024bc:	2b00      	cmp	r3, #0
 80024be:	d001      	beq.n	80024c4 <Vector58+0x84>
 80024c0:	6be0      	ldr	r0, [r4, #60]	@ 0x3c
 80024c2:	4798      	blx	r3
  __ASM volatile ("cpsid i" : : : "memory");
 80024c4:	b672      	cpsid	i
 80024c6:	2330      	movs	r3, #48	@ 0x30
 80024c8:	469c      	mov	ip, r3
  return (bool)(qp->next != qp);
 80024ca:	6b21      	ldr	r1, [r4, #48]	@ 0x30
 80024cc:	44a4      	add	ip, r4
 80024ce:	4561      	cmp	r1, ip
 80024d0:	d018      	beq.n	8002504 <Vector58+0xc4>
  tp->state = CH_STATE_READY;
 80024d2:	3b0c      	subs	r3, #12
 80024d4:	46e1      	mov	r9, ip
 80024d6:	2700      	movs	r7, #0
 80024d8:	4698      	mov	r8, r3
  qp->next->prev = qp;
 80024da:	4662      	mov	r2, ip
 80024dc:	000b      	movs	r3, r1
  qp->next       = p->next;
 80024de:	6809      	ldr	r1, [r1, #0]
 80024e0:	6321      	str	r1, [r4, #48]	@ 0x30
  qp->next->prev = qp;
 80024e2:	604a      	str	r2, [r1, #4]
 80024e4:	4642      	mov	r2, r8
 80024e6:	629f      	str	r7, [r3, #40]	@ 0x28
 80024e8:	549f      	strb	r7, [r3, r2]
  return threadref(ch_pqueue_insert_behind(&tp->owner->rlist.pqueue,
 80024ea:	699a      	ldr	r2, [r3, #24]
  } while (unlikely(pqp->prio >= p->prio));
 80024ec:	689e      	ldr	r6, [r3, #8]
    pqp = pqp->next;
 80024ee:	6812      	ldr	r2, [r2, #0]
  } while (unlikely(pqp->prio >= p->prio));
 80024f0:	6890      	ldr	r0, [r2, #8]
 80024f2:	42b0      	cmp	r0, r6
 80024f4:	d2fb      	bcs.n	80024ee <Vector58+0xae>
  p->prev       = pqp->prev;
 80024f6:	6850      	ldr	r0, [r2, #4]
  p->next       = pqp;
 80024f8:	601a      	str	r2, [r3, #0]
  p->prev       = pqp->prev;
 80024fa:	6058      	str	r0, [r3, #4]
  p->prev->next = p;
 80024fc:	6003      	str	r3, [r0, #0]
  pqp->prev     = p;
 80024fe:	6053      	str	r3, [r2, #4]
 8002500:	4549      	cmp	r1, r9
 8002502:	d1ea      	bne.n	80024da <Vector58+0x9a>
  __ASM volatile ("cpsie i" : : : "memory");
 8002504:	b662      	cpsie	i
  if (lr != 0xFFFFFFF1U) {
 8002506:	465b      	mov	r3, fp
 8002508:	330f      	adds	r3, #15
 800250a:	d105      	bne.n	8002518 <Vector58+0xd8>

  OSAL_IRQ_EPILOGUE();
}
 800250c:	bcf0      	pop	{r4, r5, r6, r7}
 800250e:	46bb      	mov	fp, r7
 8002510:	46b2      	mov	sl, r6
 8002512:	46a9      	mov	r9, r5
 8002514:	46a0      	mov	r8, r4
 8002516:	bdf8      	pop	{r3, r4, r5, r6, r7, pc}
  __ASM volatile ("cpsid i" : : : "memory");
 8002518:	b672      	cpsid	i
  __ASM volatile ("MRS %0, psp"  : "=r" (result) );
 800251a:	f3ef 8309 	mrs	r3, PSP
    ectxp--;
 800251e:	3b20      	subs	r3, #32
  __ASM volatile ("MSR psp, %0" : : "r" (topOfProcStack) : );
 8002520:	f383 8809 	msr	PSP, r3
    ectxp->xpsr = 0x01000000U;
 8002524:	2280      	movs	r2, #128	@ 0x80
 8002526:	0452      	lsls	r2, r2, #17
 8002528:	61da      	str	r2, [r3, #28]
  tprio_t p1 = firstprio(&oip->rlist.pqueue);
 800252a:	4a08      	ldr	r2, [pc, #32]	@ (800254c <Vector58+0x10c>)
 800252c:	6811      	ldr	r1, [r2, #0]
  tprio_t p2 = tp->hdr.pqueue.prio;
 800252e:	68d2      	ldr	r2, [r2, #12]
    if (chSchIsPreemptionRequired()) {
 8002530:	6889      	ldr	r1, [r1, #8]
 8002532:	6892      	ldr	r2, [r2, #8]
 8002534:	4291      	cmp	r1, r2
 8002536:	d902      	bls.n	800253e <Vector58+0xfe>
      ectxp->pc = (uint32_t)__port_switch_from_isr;
 8002538:	4a05      	ldr	r2, [pc, #20]	@ (8002550 <Vector58+0x110>)
 800253a:	619a      	str	r2, [r3, #24]
 800253c:	e7e6      	b.n	800250c <Vector58+0xcc>
      ectxp->pc = (uint32_t)__port_exit_from_isr;
 800253e:	4a05      	ldr	r2, [pc, #20]	@ (8002554 <Vector58+0x114>)
 8002540:	619a      	str	r2, [r3, #24]
 8002542:	e7e3      	b.n	800250c <Vector58+0xcc>
 8002544:	40021800 	.word	0x40021800
 8002548:	20000f80 	.word	0x20000f80
 800254c:	200010b0 	.word	0x200010b0
 8002550:	080001c7 	.word	0x080001c7
 8002554:	080001ca 	.word	0x080001ca
	...

08002560 <Vector5C>:
/**
 * @brief   EXTI[4]..EXTI[15] interrupt handler.
 *
 * @isr
 */
OSAL_IRQ_HANDLER(STM32_EXTI4_15_HANDLER) {
 8002560:	b5f8      	push	{r3, r4, r5, r6, r7, lr}
 8002562:	465f      	mov	r7, fp
 8002564:	4656      	mov	r6, sl
 8002566:	464d      	mov	r5, r9
 8002568:	4644      	mov	r4, r8
  uint32_t pr;

  OSAL_IRQ_PROLOGUE();

  extiGetAndClearGroup1((1U << 4)  | (1U << 5)  | (1U << 6)  | (1U << 7)  |
 800256a:	4bc8      	ldr	r3, [pc, #800]	@ (800288c <Vector5C+0x32c>)
OSAL_IRQ_HANDLER(STM32_EXTI4_15_HANDLER) {
 800256c:	b4f0      	push	{r4, r5, r6, r7}
  extiGetAndClearGroup1((1U << 4)  | (1U << 5)  | (1U << 6)  | (1U << 7)  |
 800256e:	68de      	ldr	r6, [r3, #12]
 8002570:	4ac7      	ldr	r2, [pc, #796]	@ (8002890 <Vector5C+0x330>)
 8002572:	0030      	movs	r0, r6
 8002574:	6919      	ldr	r1, [r3, #16]
 8002576:	4010      	ands	r0, r2
 8002578:	430e      	orrs	r6, r1
 800257a:	400a      	ands	r2, r1
 800257c:	60d8      	str	r0, [r3, #12]
  OSAL_IRQ_PROLOGUE();
 800257e:	46f3      	mov	fp, lr
  extiGetAndClearGroup1((1U << 4)  | (1U << 5)  | (1U << 6)  | (1U << 7)  |
 8002580:	611a      	str	r2, [r3, #16]
                        (1U << 8)  | (1U << 9)  | (1U << 10) | (1U << 11) |
                        (1U << 12) | (1U << 13) | (1U << 14) | (1U << 15), pr);

  exti_serve_irq(pr, 4);
 8002582:	06f3      	lsls	r3, r6, #27
 8002584:	d526      	bpl.n	80025d4 <Vector5C+0x74>
 8002586:	4cc3      	ldr	r4, [pc, #780]	@ (8002894 <Vector5C+0x334>)
 8002588:	6ca3      	ldr	r3, [r4, #72]	@ 0x48
 800258a:	2b00      	cmp	r3, #0
 800258c:	d001      	beq.n	8002592 <Vector5C+0x32>
 800258e:	6ce0      	ldr	r0, [r4, #76]	@ 0x4c
 8002590:	4798      	blx	r3
  __ASM volatile ("cpsid i" : : : "memory");
 8002592:	b672      	cpsid	i
 8002594:	2340      	movs	r3, #64	@ 0x40
 8002596:	4698      	mov	r8, r3
  return (bool)(qp->next != qp);
 8002598:	6c21      	ldr	r1, [r4, #64]	@ 0x40
 800259a:	44a0      	add	r8, r4
 800259c:	4541      	cmp	r1, r8
 800259e:	d018      	beq.n	80025d2 <Vector5C+0x72>
 80025a0:	2300      	movs	r3, #0
 80025a2:	46c2      	mov	sl, r8
 80025a4:	469c      	mov	ip, r3
  tp->state = CH_STATE_READY;
 80025a6:	2524      	movs	r5, #36	@ 0x24
  qp->next->prev = qp;
 80025a8:	4642      	mov	r2, r8
 80025aa:	000b      	movs	r3, r1
  qp->next       = p->next;
 80025ac:	6809      	ldr	r1, [r1, #0]
 80025ae:	6421      	str	r1, [r4, #64]	@ 0x40
  qp->next->prev = qp;
 80025b0:	604a      	str	r2, [r1, #4]
 80025b2:	4662      	mov	r2, ip
 80025b4:	629a      	str	r2, [r3, #40]	@ 0x28
 80025b6:	555a      	strb	r2, [r3, r5]
  return threadref(ch_pqueue_insert_behind(&tp->owner->rlist.pqueue,
 80025b8:	699a      	ldr	r2, [r3, #24]
  } while (unlikely(pqp->prio >= p->prio));
 80025ba:	689f      	ldr	r7, [r3, #8]
    pqp = pqp->next;
 80025bc:	6812      	ldr	r2, [r2, #0]
  } while (unlikely(pqp->prio >= p->prio));
 80025be:	6890      	ldr	r0, [r2, #8]
 80025c0:	42b8      	cmp	r0, r7
 80025c2:	d2fb      	bcs.n	80025bc <Vector5C+0x5c>
  p->prev       = pqp->prev;
 80025c4:	6850      	ldr	r0, [r2, #4]
  p->next       = pqp;
 80025c6:	601a      	str	r2, [r3, #0]
  p->prev       = pqp->prev;
 80025c8:	6058      	str	r0, [r3, #4]
  p->prev->next = p;
 80025ca:	6003      	str	r3, [r0, #0]
  pqp->prev     = p;
 80025cc:	6053      	str	r3, [r2, #4]
 80025ce:	4551      	cmp	r1, sl
 80025d0:	d1ea      	bne.n	80025a8 <Vector5C+0x48>
  __ASM volatile ("cpsie i" : : : "memory");
 80025d2:	b662      	cpsie	i
  exti_serve_irq(pr, 5);
 80025d4:	06b3      	lsls	r3, r6, #26
 80025d6:	d526      	bpl.n	8002626 <Vector5C+0xc6>
 80025d8:	4cae      	ldr	r4, [pc, #696]	@ (8002894 <Vector5C+0x334>)
 80025da:	6da3      	ldr	r3, [r4, #88]	@ 0x58
 80025dc:	2b00      	cmp	r3, #0
 80025de:	d001      	beq.n	80025e4 <Vector5C+0x84>
 80025e0:	6de0      	ldr	r0, [r4, #92]	@ 0x5c
 80025e2:	4798      	blx	r3
  __ASM volatile ("cpsid i" : : : "memory");
 80025e4:	b672      	cpsid	i
 80025e6:	2350      	movs	r3, #80	@ 0x50
 80025e8:	4698      	mov	r8, r3
  return (bool)(qp->next != qp);
 80025ea:	6d21      	ldr	r1, [r4, #80]	@ 0x50
 80025ec:	44a0      	add	r8, r4
 80025ee:	4541      	cmp	r1, r8
 80025f0:	d018      	beq.n	8002624 <Vector5C+0xc4>
 80025f2:	2300      	movs	r3, #0
 80025f4:	46c2      	mov	sl, r8
 80025f6:	469c      	mov	ip, r3
  tp->state = CH_STATE_READY;
 80025f8:	2524      	movs	r5, #36	@ 0x24
  qp->next->prev = qp;
 80025fa:	4642      	mov	r2, r8
 80025fc:	000b      	movs	r3, r1
  qp->next       = p->next;
 80025fe:	6809      	ldr	r1, [r1, #0]
 8002600:	6521      	str	r1, [r4, #80]	@ 0x50
  qp->next->prev = qp;
 8002602:	604a      	str	r2, [r1, #4]
 8002604:	4662      	mov	r2, ip
 8002606:	629a      	str	r2, [r3, #40]	@ 0x28
 8002608:	555a      	strb	r2, [r3, r5]
  return threadref(ch_pqueue_insert_behind(&tp->owner->rlist.pqueue,
 800260a:	699a      	ldr	r2, [r3, #24]
  } while (unlikely(pqp->prio >= p->prio));
 800260c:	689f      	ldr	r7, [r3, #8]
    pqp = pqp->next;
 800260e:	6812      	ldr	r2, [r2, #0]
  } while (unlikely(pqp->prio >= p->prio));
 8002610:	6890      	ldr	r0, [r2, #8]
 8002612:	42b8      	cmp	r0, r7
 8002614:	d2fb      	bcs.n	800260e <Vector5C+0xae>
  p->prev       = pqp->prev;
 8002616:	6850      	ldr	r0, [r2, #4]
  p->next       = pqp;
 8002618:	601a      	str	r2, [r3, #0]
  p->prev       = pqp->prev;
 800261a:	6058      	str	r0, [r3, #4]
  p->prev->next = p;
 800261c:	6003      	str	r3, [r0, #0]
  pqp->prev     = p;
 800261e:	6053      	str	r3, [r2, #4]
 8002620:	4551      	cmp	r1, sl
 8002622:	d1ea      	bne.n	80025fa <Vector5C+0x9a>
  __ASM volatile ("cpsie i" : : : "memory");
 8002624:	b662      	cpsie	i
  exti_serve_irq(pr, 6);
 8002626:	0673      	lsls	r3, r6, #25
 8002628:	d526      	bpl.n	8002678 <Vector5C+0x118>
 800262a:	4c9a      	ldr	r4, [pc, #616]	@ (8002894 <Vector5C+0x334>)
 800262c:	6ea3      	ldr	r3, [r4, #104]	@ 0x68
 800262e:	2b00      	cmp	r3, #0
 8002630:	d001      	beq.n	8002636 <Vector5C+0xd6>
 8002632:	6ee0      	ldr	r0, [r4, #108]	@ 0x6c
 8002634:	4798      	blx	r3
  __ASM volatile ("cpsid i" : : : "memory");
 8002636:	b672      	cpsid	i
 8002638:	2360      	movs	r3, #96	@ 0x60
 800263a:	4698      	mov	r8, r3
  return (bool)(qp->next != qp);
 800263c:	6e21      	ldr	r1, [r4, #96]	@ 0x60
 800263e:	44a0      	add	r8, r4
 8002640:	4541      	cmp	r1, r8
 8002642:	d018      	beq.n	8002676 <Vector5C+0x116>
 8002644:	2300      	movs	r3, #0
 8002646:	46c2      	mov	sl, r8
 8002648:	469c      	mov	ip, r3
  tp->state = CH_STATE_READY;
 800264a:	2524      	movs	r5, #36	@ 0x24
  qp->next->prev = qp;
 800264c:	4642      	mov	r2, r8
 800264e:	000b      	movs	r3, r1
  qp->next       = p->next;
 8002650:	6809      	ldr	r1, [r1, #0]
 8002652:	6621      	str	r1, [r4, #96]	@ 0x60
  qp->next->prev = qp;
 8002654:	604a      	str	r2, [r1, #4]
 8002656:	4662      	mov	r2, ip
 8002658:	629a      	str	r2, [r3, #40]	@ 0x28
 800265a:	555a      	strb	r2, [r3, r5]
  return threadref(ch_pqueue_insert_behind(&tp->owner->rlist.pqueue,
 800265c:	699a      	ldr	r2, [r3, #24]
  } while (unlikely(pqp->prio >= p->prio));
 800265e:	689f      	ldr	r7, [r3, #8]
    pqp = pqp->next;
 8002660:	6812      	ldr	r2, [r2, #0]
  } while (unlikely(pqp->prio >= p->prio));
 8002662:	6890      	ldr	r0, [r2, #8]
 8002664:	42b8      	cmp	r0, r7
 8002666:	d2fb      	bcs.n	8002660 <Vector5C+0x100>
  p->prev       = pqp->prev;
 8002668:	6850      	ldr	r0, [r2, #4]
  p->next       = pqp;
 800266a:	601a      	str	r2, [r3, #0]
  p->prev       = pqp->prev;
 800266c:	6058      	str	r0, [r3, #4]
  p->prev->next = p;
 800266e:	6003      	str	r3, [r0, #0]
  pqp->prev     = p;
 8002670:	6053      	str	r3, [r2, #4]
 8002672:	4551      	cmp	r1, sl
 8002674:	d1ea      	bne.n	800264c <Vector5C+0xec>
  __ASM volatile ("cpsie i" : : : "memory");
 8002676:	b662      	cpsie	i
  exti_serve_irq(pr, 7);
 8002678:	0633      	lsls	r3, r6, #24
 800267a:	d526      	bpl.n	80026ca <Vector5C+0x16a>
 800267c:	4c85      	ldr	r4, [pc, #532]	@ (8002894 <Vector5C+0x334>)
 800267e:	6fa3      	ldr	r3, [r4, #120]	@ 0x78
 8002680:	2b00      	cmp	r3, #0
 8002682:	d001      	beq.n	8002688 <Vector5C+0x128>
 8002684:	6fe0      	ldr	r0, [r4, #124]	@ 0x7c
 8002686:	4798      	blx	r3
  __ASM volatile ("cpsid i" : : : "memory");
 8002688:	b672      	cpsid	i
 800268a:	2370      	movs	r3, #112	@ 0x70
 800268c:	4698      	mov	r8, r3
  return (bool)(qp->next != qp);
 800268e:	6f21      	ldr	r1, [r4, #112]	@ 0x70
 8002690:	44a0      	add	r8, r4
 8002692:	4541      	cmp	r1, r8
 8002694:	d018      	beq.n	80026c8 <Vector5C+0x168>
  tp->state = CH_STATE_READY;
 8002696:	3b4c      	subs	r3, #76	@ 0x4c
 8002698:	46c2      	mov	sl, r8
 800269a:	2500      	movs	r5, #0
 800269c:	4699      	mov	r9, r3
  qp->next->prev = qp;
 800269e:	4642      	mov	r2, r8
 80026a0:	000b      	movs	r3, r1
  qp->next       = p->next;
 80026a2:	6809      	ldr	r1, [r1, #0]
 80026a4:	6721      	str	r1, [r4, #112]	@ 0x70
  qp->next->prev = qp;
 80026a6:	604a      	str	r2, [r1, #4]
 80026a8:	464a      	mov	r2, r9
 80026aa:	629d      	str	r5, [r3, #40]	@ 0x28
 80026ac:	549d      	strb	r5, [r3, r2]
  return threadref(ch_pqueue_insert_behind(&tp->owner->rlist.pqueue,
 80026ae:	699a      	ldr	r2, [r3, #24]
  } while (unlikely(pqp->prio >= p->prio));
 80026b0:	689f      	ldr	r7, [r3, #8]
    pqp = pqp->next;
 80026b2:	6812      	ldr	r2, [r2, #0]
  } while (unlikely(pqp->prio >= p->prio));
 80026b4:	6890      	ldr	r0, [r2, #8]
 80026b6:	42b8      	cmp	r0, r7
 80026b8:	d2fb      	bcs.n	80026b2 <Vector5C+0x152>
  p->prev       = pqp->prev;
 80026ba:	6850      	ldr	r0, [r2, #4]
  p->next       = pqp;
 80026bc:	601a      	str	r2, [r3, #0]
  p->prev       = pqp->prev;
 80026be:	6058      	str	r0, [r3, #4]
  p->prev->next = p;
 80026c0:	6003      	str	r3, [r0, #0]
  pqp->prev     = p;
 80026c2:	6053      	str	r3, [r2, #4]
 80026c4:	4551      	cmp	r1, sl
 80026c6:	d1ea      	bne.n	800269e <Vector5C+0x13e>
  __ASM volatile ("cpsie i" : : : "memory");
 80026c8:	b662      	cpsie	i
  exti_serve_irq(pr, 8);
 80026ca:	05f3      	lsls	r3, r6, #23
 80026cc:	d52a      	bpl.n	8002724 <Vector5C+0x1c4>
 80026ce:	2388      	movs	r3, #136	@ 0x88
 80026d0:	4c70      	ldr	r4, [pc, #448]	@ (8002894 <Vector5C+0x334>)
 80026d2:	58e3      	ldr	r3, [r4, r3]
 80026d4:	2b00      	cmp	r3, #0
 80026d6:	d002      	beq.n	80026de <Vector5C+0x17e>
 80026d8:	228c      	movs	r2, #140	@ 0x8c
 80026da:	58a0      	ldr	r0, [r4, r2]
 80026dc:	4798      	blx	r3
  __ASM volatile ("cpsid i" : : : "memory");
 80026de:	b672      	cpsid	i
  return (bool)(qp->next != qp);
 80026e0:	2380      	movs	r3, #128	@ 0x80
 80026e2:	469c      	mov	ip, r3
 80026e4:	58e1      	ldr	r1, [r4, r3]
 80026e6:	44a4      	add	ip, r4
 80026e8:	4561      	cmp	r1, ip
 80026ea:	d01a      	beq.n	8002722 <Vector5C+0x1c2>
  qp->next       = p->next;
 80026ec:	4699      	mov	r9, r3
  tp->state = CH_STATE_READY;
 80026ee:	3b5c      	subs	r3, #92	@ 0x5c
 80026f0:	46e2      	mov	sl, ip
 80026f2:	2700      	movs	r7, #0
 80026f4:	4698      	mov	r8, r3
 80026f6:	464a      	mov	r2, r9
 80026f8:	000b      	movs	r3, r1
 80026fa:	6809      	ldr	r1, [r1, #0]
 80026fc:	50a1      	str	r1, [r4, r2]
  qp->next->prev = qp;
 80026fe:	4662      	mov	r2, ip
 8002700:	604a      	str	r2, [r1, #4]
 8002702:	4642      	mov	r2, r8
 8002704:	629f      	str	r7, [r3, #40]	@ 0x28
 8002706:	549f      	strb	r7, [r3, r2]
  return threadref(ch_pqueue_insert_behind(&tp->owner->rlist.pqueue,
 8002708:	699a      	ldr	r2, [r3, #24]
  } while (unlikely(pqp->prio >= p->prio));
 800270a:	689d      	ldr	r5, [r3, #8]
    pqp = pqp->next;
 800270c:	6812      	ldr	r2, [r2, #0]
  } while (unlikely(pqp->prio >= p->prio));
 800270e:	6890      	ldr	r0, [r2, #8]
 8002710:	42a8      	cmp	r0, r5
 8002712:	d2fb      	bcs.n	800270c <Vector5C+0x1ac>
  p->prev       = pqp->prev;
 8002714:	6850      	ldr	r0, [r2, #4]
  p->next       = pqp;
 8002716:	601a      	str	r2, [r3, #0]
  p->prev       = pqp->prev;
 8002718:	6058      	str	r0, [r3, #4]
  p->prev->next = p;
 800271a:	6003      	str	r3, [r0, #0]
  pqp->prev     = p;
 800271c:	6053      	str	r3, [r2, #4]
 800271e:	4551      	cmp	r1, sl
 8002720:	d1e9      	bne.n	80026f6 <Vector5C+0x196>
  __ASM volatile ("cpsie i" : : : "memory");
 8002722:	b662      	cpsie	i
  exti_serve_irq(pr, 9);
 8002724:	05b3      	lsls	r3, r6, #22
 8002726:	d52a      	bpl.n	800277e <Vector5C+0x21e>
 8002728:	2398      	movs	r3, #152	@ 0x98
 800272a:	4c5a      	ldr	r4, [pc, #360]	@ (8002894 <Vector5C+0x334>)
 800272c:	58e3      	ldr	r3, [r4, r3]
 800272e:	2b00      	cmp	r3, #0
 8002730:	d002      	beq.n	8002738 <Vector5C+0x1d8>
 8002732:	229c      	movs	r2, #156	@ 0x9c
 8002734:	58a0      	ldr	r0, [r4, r2]
 8002736:	4798      	blx	r3
  __ASM volatile ("cpsid i" : : : "memory");
 8002738:	b672      	cpsid	i
  return (bool)(qp->next != qp);
 800273a:	2390      	movs	r3, #144	@ 0x90
 800273c:	469c      	mov	ip, r3
 800273e:	58e1      	ldr	r1, [r4, r3]
 8002740:	44a4      	add	ip, r4
 8002742:	4561      	cmp	r1, ip
 8002744:	d01a      	beq.n	800277c <Vector5C+0x21c>
  qp->next       = p->next;
 8002746:	4699      	mov	r9, r3
  tp->state = CH_STATE_READY;
 8002748:	3b6c      	subs	r3, #108	@ 0x6c
 800274a:	46e2      	mov	sl, ip
 800274c:	2700      	movs	r7, #0
 800274e:	4698      	mov	r8, r3
 8002750:	464a      	mov	r2, r9
 8002752:	000b      	movs	r3, r1
 8002754:	6809      	ldr	r1, [r1, #0]
 8002756:	50a1      	str	r1, [r4, r2]
  qp->next->prev = qp;
 8002758:	4662      	mov	r2, ip
 800275a:	604a      	str	r2, [r1, #4]
 800275c:	4642      	mov	r2, r8
 800275e:	629f      	str	r7, [r3, #40]	@ 0x28
 8002760:	549f      	strb	r7, [r3, r2]
  return threadref(ch_pqueue_insert_behind(&tp->owner->rlist.pqueue,
 8002762:	699a      	ldr	r2, [r3, #24]
  } while (unlikely(pqp->prio >= p->prio));
 8002764:	689d      	ldr	r5, [r3, #8]
    pqp = pqp->next;
 8002766:	6812      	ldr	r2, [r2, #0]
  } while (unlikely(pqp->prio >= p->prio));
 8002768:	6890      	ldr	r0, [r2, #8]
 800276a:	42a8      	cmp	r0, r5
 800276c:	d2fb      	bcs.n	8002766 <Vector5C+0x206>
  p->prev       = pqp->prev;
 800276e:	6850      	ldr	r0, [r2, #4]
  p->next       = pqp;
 8002770:	601a      	str	r2, [r3, #0]
  p->prev       = pqp->prev;
 8002772:	6058      	str	r0, [r3, #4]
  p->prev->next = p;
 8002774:	6003      	str	r3, [r0, #0]
  pqp->prev     = p;
 8002776:	6053      	str	r3, [r2, #4]
 8002778:	4551      	cmp	r1, sl
 800277a:	d1e9      	bne.n	8002750 <Vector5C+0x1f0>
  __ASM volatile ("cpsie i" : : : "memory");
 800277c:	b662      	cpsie	i
  exti_serve_irq(pr, 10);
 800277e:	0573      	lsls	r3, r6, #21
 8002780:	d52a      	bpl.n	80027d8 <Vector5C+0x278>
 8002782:	23a8      	movs	r3, #168	@ 0xa8
 8002784:	4c43      	ldr	r4, [pc, #268]	@ (8002894 <Vector5C+0x334>)
 8002786:	58e3      	ldr	r3, [r4, r3]
 8002788:	2b00      	cmp	r3, #0
 800278a:	d002      	beq.n	8002792 <Vector5C+0x232>
 800278c:	22ac      	movs	r2, #172	@ 0xac
 800278e:	58a0      	ldr	r0, [r4, r2]
 8002790:	4798      	blx	r3
  __ASM volatile ("cpsid i" : : : "memory");
 8002792:	b672      	cpsid	i
  return (bool)(qp->next != qp);
 8002794:	23a0      	movs	r3, #160	@ 0xa0
 8002796:	469c      	mov	ip, r3
 8002798:	58e1      	ldr	r1, [r4, r3]
 800279a:	44a4      	add	ip, r4
 800279c:	4561      	cmp	r1, ip
 800279e:	d01a      	beq.n	80027d6 <Vector5C+0x276>
  qp->next       = p->next;
 80027a0:	4699      	mov	r9, r3
  tp->state = CH_STATE_READY;
 80027a2:	3b7c      	subs	r3, #124	@ 0x7c
 80027a4:	46e2      	mov	sl, ip
 80027a6:	2700      	movs	r7, #0
 80027a8:	4698      	mov	r8, r3
 80027aa:	464a      	mov	r2, r9
 80027ac:	000b      	movs	r3, r1
 80027ae:	6809      	ldr	r1, [r1, #0]
 80027b0:	50a1      	str	r1, [r4, r2]
  qp->next->prev = qp;
 80027b2:	4662      	mov	r2, ip
 80027b4:	604a      	str	r2, [r1, #4]
 80027b6:	4642      	mov	r2, r8
 80027b8:	629f      	str	r7, [r3, #40]	@ 0x28
 80027ba:	549f      	strb	r7, [r3, r2]
  return threadref(ch_pqueue_insert_behind(&tp->owner->rlist.pqueue,
 80027bc:	699a      	ldr	r2, [r3, #24]
  } while (unlikely(pqp->prio >= p->prio));
 80027be:	689d      	ldr	r5, [r3, #8]
    pqp = pqp->next;
 80027c0:	6812      	ldr	r2, [r2, #0]
  } while (unlikely(pqp->prio >= p->prio));
 80027c2:	6890      	ldr	r0, [r2, #8]
 80027c4:	42a8      	cmp	r0, r5
 80027c6:	d2fb      	bcs.n	80027c0 <Vector5C+0x260>
  p->prev       = pqp->prev;
 80027c8:	6850      	ldr	r0, [r2, #4]
  p->next       = pqp;
 80027ca:	601a      	str	r2, [r3, #0]
  p->prev       = pqp->prev;
 80027cc:	6058      	str	r0, [r3, #4]
  p->prev->next = p;
 80027ce:	6003      	str	r3, [r0, #0]
  pqp->prev     = p;
 80027d0:	6053      	str	r3, [r2, #4]
 80027d2:	4551      	cmp	r1, sl
 80027d4:	d1e9      	bne.n	80027aa <Vector5C+0x24a>
  __ASM volatile ("cpsie i" : : : "memory");
 80027d6:	b662      	cpsie	i
  exti_serve_irq(pr, 11);
 80027d8:	0533      	lsls	r3, r6, #20
 80027da:	d52a      	bpl.n	8002832 <Vector5C+0x2d2>
 80027dc:	23b8      	movs	r3, #184	@ 0xb8
 80027de:	4c2d      	ldr	r4, [pc, #180]	@ (8002894 <Vector5C+0x334>)
 80027e0:	58e3      	ldr	r3, [r4, r3]
 80027e2:	2b00      	cmp	r3, #0
 80027e4:	d002      	beq.n	80027ec <Vector5C+0x28c>
 80027e6:	22bc      	movs	r2, #188	@ 0xbc
 80027e8:	58a0      	ldr	r0, [r4, r2]
 80027ea:	4798      	blx	r3
  __ASM volatile ("cpsid i" : : : "memory");
 80027ec:	b672      	cpsid	i
  return (bool)(qp->next != qp);
 80027ee:	23b0      	movs	r3, #176	@ 0xb0
 80027f0:	469c      	mov	ip, r3
 80027f2:	58e1      	ldr	r1, [r4, r3]
 80027f4:	44a4      	add	ip, r4
 80027f6:	4561      	cmp	r1, ip
 80027f8:	d01a      	beq.n	8002830 <Vector5C+0x2d0>
  qp->next       = p->next;
 80027fa:	4699      	mov	r9, r3
  tp->state = CH_STATE_READY;
 80027fc:	3b8c      	subs	r3, #140	@ 0x8c
 80027fe:	46e2      	mov	sl, ip
 8002800:	2700      	movs	r7, #0
 8002802:	4698      	mov	r8, r3
 8002804:	464a      	mov	r2, r9
 8002806:	000b      	movs	r3, r1
 8002808:	6809      	ldr	r1, [r1, #0]
 800280a:	50a1      	str	r1, [r4, r2]
  qp->next->prev = qp;
 800280c:	4662      	mov	r2, ip
 800280e:	604a      	str	r2, [r1, #4]
 8002810:	4642      	mov	r2, r8
 8002812:	629f      	str	r7, [r3, #40]	@ 0x28
 8002814:	549f      	strb	r7, [r3, r2]
  return threadref(ch_pqueue_insert_behind(&tp->owner->rlist.pqueue,
 8002816:	699a      	ldr	r2, [r3, #24]
  } while (unlikely(pqp->prio >= p->prio));
 8002818:	689d      	ldr	r5, [r3, #8]
    pqp = pqp->next;
 800281a:	6812      	ldr	r2, [r2, #0]
  } while (unlikely(pqp->prio >= p->prio));
 800281c:	6890      	ldr	r0, [r2, #8]
 800281e:	42a8      	cmp	r0, r5
 8002820:	d2fb      	bcs.n	800281a <Vector5C+0x2ba>
  p->prev       = pqp->prev;
 8002822:	6850      	ldr	r0, [r2, #4]
  p->next       = pqp;
 8002824:	601a      	str	r2, [r3, #0]
  p->prev       = pqp->prev;
 8002826:	6058      	str	r0, [r3, #4]
  p->prev->next = p;
 8002828:	6003      	str	r3, [r0, #0]
  pqp->prev     = p;
 800282a:	6053      	str	r3, [r2, #4]
 800282c:	4551      	cmp	r1, sl
 800282e:	d1e9      	bne.n	8002804 <Vector5C+0x2a4>
  __ASM volatile ("cpsie i" : : : "memory");
 8002830:	b662      	cpsie	i
  exti_serve_irq(pr, 12);
 8002832:	04f3      	lsls	r3, r6, #19
 8002834:	d531      	bpl.n	800289a <Vector5C+0x33a>
 8002836:	23c8      	movs	r3, #200	@ 0xc8
 8002838:	4c16      	ldr	r4, [pc, #88]	@ (8002894 <Vector5C+0x334>)
 800283a:	58e3      	ldr	r3, [r4, r3]
 800283c:	2b00      	cmp	r3, #0
 800283e:	d002      	beq.n	8002846 <Vector5C+0x2e6>
 8002840:	22cc      	movs	r2, #204	@ 0xcc
 8002842:	58a0      	ldr	r0, [r4, r2]
 8002844:	4798      	blx	r3
  __ASM volatile ("cpsid i" : : : "memory");
 8002846:	b672      	cpsid	i
  return (bool)(qp->next != qp);
 8002848:	23c0      	movs	r3, #192	@ 0xc0
 800284a:	469c      	mov	ip, r3
 800284c:	58e1      	ldr	r1, [r4, r3]
 800284e:	44a4      	add	ip, r4
 8002850:	4561      	cmp	r1, ip
 8002852:	d021      	beq.n	8002898 <Vector5C+0x338>
  qp->next       = p->next;
 8002854:	4699      	mov	r9, r3
  tp->state = CH_STATE_READY;
 8002856:	3b9c      	subs	r3, #156	@ 0x9c
 8002858:	46e2      	mov	sl, ip
 800285a:	2700      	movs	r7, #0
 800285c:	4698      	mov	r8, r3
 800285e:	464a      	mov	r2, r9
 8002860:	000b      	movs	r3, r1
 8002862:	6809      	ldr	r1, [r1, #0]
 8002864:	50a1      	str	r1, [r4, r2]
  qp->next->prev = qp;
 8002866:	4662      	mov	r2, ip
 8002868:	604a      	str	r2, [r1, #4]
 800286a:	4642      	mov	r2, r8
 800286c:	629f      	str	r7, [r3, #40]	@ 0x28
 800286e:	549f      	strb	r7, [r3, r2]
  return threadref(ch_pqueue_insert_behind(&tp->owner->rlist.pqueue,
 8002870:	699a      	ldr	r2, [r3, #24]
  } while (unlikely(pqp->prio >= p->prio));
 8002872:	689d      	ldr	r5, [r3, #8]
    pqp = pqp->next;
 8002874:	6812      	ldr	r2, [r2, #0]
  } while (unlikely(pqp->prio >= p->prio));
 8002876:	6890      	ldr	r0, [r2, #8]
 8002878:	42a8      	cmp	r0, r5
 800287a:	d2fb      	bcs.n	8002874 <Vector5C+0x314>
  p->prev       = pqp->prev;
 800287c:	6850      	ldr	r0, [r2, #4]
  p->next       = pqp;
 800287e:	601a      	str	r2, [r3, #0]
  p->prev       = pqp->prev;
 8002880:	6058      	str	r0, [r3, #4]
  p->prev->next = p;
 8002882:	6003      	str	r3, [r0, #0]
  pqp->prev     = p;
 8002884:	6053      	str	r3, [r2, #4]
 8002886:	4551      	cmp	r1, sl
 8002888:	d1e9      	bne.n	800285e <Vector5C+0x2fe>
 800288a:	e005      	b.n	8002898 <Vector5C+0x338>
 800288c:	40021800 	.word	0x40021800
 8002890:	0000fff0 	.word	0x0000fff0
 8002894:	20000f80 	.word	0x20000f80
  __ASM volatile ("cpsie i" : : : "memory");
 8002898:	b662      	cpsie	i
  exti_serve_irq(pr, 13);
 800289a:	04b3      	lsls	r3, r6, #18
 800289c:	d52a      	bpl.n	80028f4 <Vector5C+0x394>
 800289e:	23d8      	movs	r3, #216	@ 0xd8
 80028a0:	4c51      	ldr	r4, [pc, #324]	@ (80029e8 <Vector5C+0x488>)
 80028a2:	58e3      	ldr	r3, [r4, r3]
 80028a4:	2b00      	cmp	r3, #0
 80028a6:	d002      	beq.n	80028ae <Vector5C+0x34e>
 80028a8:	22dc      	movs	r2, #220	@ 0xdc
 80028aa:	58a0      	ldr	r0, [r4, r2]
 80028ac:	4798      	blx	r3
  __ASM volatile ("cpsid i" : : : "memory");
 80028ae:	b672      	cpsid	i
  return (bool)(qp->next != qp);
 80028b0:	23d0      	movs	r3, #208	@ 0xd0
 80028b2:	469c      	mov	ip, r3
 80028b4:	58e1      	ldr	r1, [r4, r3]
 80028b6:	44a4      	add	ip, r4
 80028b8:	4561      	cmp	r1, ip
 80028ba:	d01a      	beq.n	80028f2 <Vector5C+0x392>
  qp->next       = p->next;
 80028bc:	4699      	mov	r9, r3
  tp->state = CH_STATE_READY;
 80028be:	3bac      	subs	r3, #172	@ 0xac
 80028c0:	46e2      	mov	sl, ip
 80028c2:	2700      	movs	r7, #0
 80028c4:	4698      	mov	r8, r3
 80028c6:	464a      	mov	r2, r9
 80028c8:	000b      	movs	r3, r1
 80028ca:	6809      	ldr	r1, [r1, #0]
 80028cc:	50a1      	str	r1, [r4, r2]
  qp->next->prev = qp;
 80028ce:	4662      	mov	r2, ip
 80028d0:	604a      	str	r2, [r1, #4]
 80028d2:	4642      	mov	r2, r8
 80028d4:	629f      	str	r7, [r3, #40]	@ 0x28
 80028d6:	549f      	strb	r7, [r3, r2]
  return threadref(ch_pqueue_insert_behind(&tp->owner->rlist.pqueue,
 80028d8:	699a      	ldr	r2, [r3, #24]
  } while (unlikely(pqp->prio >= p->prio));
 80028da:	689d      	ldr	r5, [r3, #8]
    pqp = pqp->next;
 80028dc:	6812      	ldr	r2, [r2, #0]
  } while (unlikely(pqp->prio >= p->prio));
 80028de:	6890      	ldr	r0, [r2, #8]
 80028e0:	42a8      	cmp	r0, r5
 80028e2:	d2fb      	bcs.n	80028dc <Vector5C+0x37c>
  p->prev       = pqp->prev;
 80028e4:	6850      	ldr	r0, [r2, #4]
  p->next       = pqp;
 80028e6:	601a      	str	r2, [r3, #0]
  p->prev       = pqp->prev;
 80028e8:	6058      	str	r0, [r3, #4]
  p->prev->next = p;
 80028ea:	6003      	str	r3, [r0, #0]
  pqp->prev     = p;
 80028ec:	6053      	str	r3, [r2, #4]
 80028ee:	4551      	cmp	r1, sl
 80028f0:	d1e9      	bne.n	80028c6 <Vector5C+0x366>
  __ASM volatile ("cpsie i" : : : "memory");
 80028f2:	b662      	cpsie	i
  exti_serve_irq(pr, 14);
 80028f4:	0473      	lsls	r3, r6, #17
 80028f6:	d52a      	bpl.n	800294e <Vector5C+0x3ee>
 80028f8:	23e8      	movs	r3, #232	@ 0xe8
 80028fa:	4c3b      	ldr	r4, [pc, #236]	@ (80029e8 <Vector5C+0x488>)
 80028fc:	58e3      	ldr	r3, [r4, r3]
 80028fe:	2b00      	cmp	r3, #0
 8002900:	d002      	beq.n	8002908 <Vector5C+0x3a8>
 8002902:	22ec      	movs	r2, #236	@ 0xec
 8002904:	58a0      	ldr	r0, [r4, r2]
 8002906:	4798      	blx	r3
  __ASM volatile ("cpsid i" : : : "memory");
 8002908:	b672      	cpsid	i
  return (bool)(qp->next != qp);
 800290a:	23e0      	movs	r3, #224	@ 0xe0
 800290c:	469c      	mov	ip, r3
 800290e:	58e1      	ldr	r1, [r4, r3]
 8002910:	44a4      	add	ip, r4
 8002912:	4561      	cmp	r1, ip
 8002914:	d01a      	beq.n	800294c <Vector5C+0x3ec>
  qp->next       = p->next;
 8002916:	4699      	mov	r9, r3
  tp->state = CH_STATE_READY;
 8002918:	3bbc      	subs	r3, #188	@ 0xbc
 800291a:	46e2      	mov	sl, ip
 800291c:	2700      	movs	r7, #0
 800291e:	4698      	mov	r8, r3
 8002920:	464a      	mov	r2, r9
 8002922:	000b      	movs	r3, r1
 8002924:	6809      	ldr	r1, [r1, #0]
 8002926:	50a1      	str	r1, [r4, r2]
  qp->next->prev = qp;
 8002928:	4662      	mov	r2, ip
 800292a:	604a      	str	r2, [r1, #4]
 800292c:	4642      	mov	r2, r8
 800292e:	629f      	str	r7, [r3, #40]	@ 0x28
 8002930:	549f      	strb	r7, [r3, r2]
  return threadref(ch_pqueue_insert_behind(&tp->owner->rlist.pqueue,
 8002932:	699a      	ldr	r2, [r3, #24]
  } while (unlikely(pqp->prio >= p->prio));
 8002934:	689d      	ldr	r5, [r3, #8]
    pqp = pqp->next;
 8002936:	6812      	ldr	r2, [r2, #0]
  } while (unlikely(pqp->prio >= p->prio));
 8002938:	6890      	ldr	r0, [r2, #8]
 800293a:	42a8      	cmp	r0, r5
 800293c:	d2fb      	bcs.n	8002936 <Vector5C+0x3d6>
  p->prev       = pqp->prev;
 800293e:	6850      	ldr	r0, [r2, #4]
  p->next       = pqp;
 8002940:	601a      	str	r2, [r3, #0]
  p->prev       = pqp->prev;
 8002942:	6058      	str	r0, [r3, #4]
  p->prev->next = p;
 8002944:	6003      	str	r3, [r0, #0]
  pqp->prev     = p;
 8002946:	6053      	str	r3, [r2, #4]
 8002948:	4551      	cmp	r1, sl
 800294a:	d1e9      	bne.n	8002920 <Vector5C+0x3c0>
  __ASM volatile ("cpsie i" : : : "memory");
 800294c:	b662      	cpsie	i
  exti_serve_irq(pr, 15);
 800294e:	0436      	lsls	r6, r6, #16
 8002950:	d52a      	bpl.n	80029a8 <Vector5C+0x448>
 8002952:	23f8      	movs	r3, #248	@ 0xf8
 8002954:	4c24      	ldr	r4, [pc, #144]	@ (80029e8 <Vector5C+0x488>)
 8002956:	58e3      	ldr	r3, [r4, r3]
 8002958:	2b00      	cmp	r3, #0
 800295a:	d002      	beq.n	8002962 <Vector5C+0x402>
 800295c:	22fc      	movs	r2, #252	@ 0xfc
 800295e:	58a0      	ldr	r0, [r4, r2]
 8002960:	4798      	blx	r3
  __ASM volatile ("cpsid i" : : : "memory");
 8002962:	b672      	cpsid	i
  return (bool)(qp->next != qp);
 8002964:	23f0      	movs	r3, #240	@ 0xf0
 8002966:	469c      	mov	ip, r3
 8002968:	58e1      	ldr	r1, [r4, r3]
 800296a:	44a4      	add	ip, r4
 800296c:	4561      	cmp	r1, ip
 800296e:	d01a      	beq.n	80029a6 <Vector5C+0x446>
  qp->next       = p->next;
 8002970:	4699      	mov	r9, r3
  tp->state = CH_STATE_READY;
 8002972:	3bcc      	subs	r3, #204	@ 0xcc
 8002974:	46e2      	mov	sl, ip
 8002976:	2700      	movs	r7, #0
 8002978:	4698      	mov	r8, r3
 800297a:	464a      	mov	r2, r9
 800297c:	000b      	movs	r3, r1
 800297e:	6809      	ldr	r1, [r1, #0]
 8002980:	50a1      	str	r1, [r4, r2]
  qp->next->prev = qp;
 8002982:	4662      	mov	r2, ip
 8002984:	604a      	str	r2, [r1, #4]
 8002986:	4642      	mov	r2, r8
 8002988:	629f      	str	r7, [r3, #40]	@ 0x28
 800298a:	549f      	strb	r7, [r3, r2]
  return threadref(ch_pqueue_insert_behind(&tp->owner->rlist.pqueue,
 800298c:	699a      	ldr	r2, [r3, #24]
  } while (unlikely(pqp->prio >= p->prio));
 800298e:	689e      	ldr	r6, [r3, #8]
    pqp = pqp->next;
 8002990:	6812      	ldr	r2, [r2, #0]
  } while (unlikely(pqp->prio >= p->prio));
 8002992:	6890      	ldr	r0, [r2, #8]
 8002994:	42b0      	cmp	r0, r6
 8002996:	d2fb      	bcs.n	8002990 <Vector5C+0x430>
  p->prev       = pqp->prev;
 8002998:	6850      	ldr	r0, [r2, #4]
  p->next       = pqp;
 800299a:	601a      	str	r2, [r3, #0]
  p->prev       = pqp->prev;
 800299c:	6058      	str	r0, [r3, #4]
  p->prev->next = p;
 800299e:	6003      	str	r3, [r0, #0]
  pqp->prev     = p;
 80029a0:	6053      	str	r3, [r2, #4]
 80029a2:	4551      	cmp	r1, sl
 80029a4:	d1e9      	bne.n	800297a <Vector5C+0x41a>
  __ASM volatile ("cpsie i" : : : "memory");
 80029a6:	b662      	cpsie	i
  if (lr != 0xFFFFFFF1U) {
 80029a8:	465b      	mov	r3, fp
 80029aa:	330f      	adds	r3, #15
 80029ac:	d105      	bne.n	80029ba <Vector5C+0x45a>

  OSAL_IRQ_EPILOGUE();
}
 80029ae:	bcf0      	pop	{r4, r5, r6, r7}
 80029b0:	46bb      	mov	fp, r7
 80029b2:	46b2      	mov	sl, r6
 80029b4:	46a9      	mov	r9, r5
 80029b6:	46a0      	mov	r8, r4
 80029b8:	bdf8      	pop	{r3, r4, r5, r6, r7, pc}
  __ASM volatile ("cpsid i" : : : "memory");
 80029ba:	b672      	cpsid	i
  __ASM volatile ("MRS %0, psp"  : "=r" (result) );
 80029bc:	f3ef 8309 	mrs	r3, PSP
    ectxp--;
 80029c0:	3b20      	subs	r3, #32
  __ASM volatile ("MSR psp, %0" : : "r" (topOfProcStack) : );
 80029c2:	f383 8809 	msr	PSP, r3
    ectxp->xpsr = 0x01000000U;
 80029c6:	2280      	movs	r2, #128	@ 0x80
 80029c8:	0452      	lsls	r2, r2, #17
 80029ca:	61da      	str	r2, [r3, #28]
  tprio_t p1 = firstprio(&oip->rlist.pqueue);
 80029cc:	4a07      	ldr	r2, [pc, #28]	@ (80029ec <Vector5C+0x48c>)
 80029ce:	6811      	ldr	r1, [r2, #0]
  tprio_t p2 = tp->hdr.pqueue.prio;
 80029d0:	68d2      	ldr	r2, [r2, #12]
    if (chSchIsPreemptionRequired()) {
 80029d2:	6889      	ldr	r1, [r1, #8]
 80029d4:	6892      	ldr	r2, [r2, #8]
 80029d6:	4291      	cmp	r1, r2
 80029d8:	d902      	bls.n	80029e0 <Vector5C+0x480>
      ectxp->pc = (uint32_t)__port_switch_from_isr;
 80029da:	4a05      	ldr	r2, [pc, #20]	@ (80029f0 <Vector5C+0x490>)
 80029dc:	619a      	str	r2, [r3, #24]
 80029de:	e7e6      	b.n	80029ae <Vector5C+0x44e>
      ectxp->pc = (uint32_t)__port_exit_from_isr;
 80029e0:	4a04      	ldr	r2, [pc, #16]	@ (80029f4 <Vector5C+0x494>)
 80029e2:	619a      	str	r2, [r3, #24]
 80029e4:	e7e3      	b.n	80029ae <Vector5C+0x44e>
 80029e6:	46c0      	nop			@ (mov r8, r8)
 80029e8:	20000f80 	.word	0x20000f80
 80029ec:	200010b0 	.word	0x200010b0
 80029f0:	080001c7 	.word	0x080001c7
 80029f4:	080001ca 	.word	0x080001ca
	...

08002a00 <VectorB0>:
/**
 * @brief   USART2 interrupt handler.
 *
 * @isr
 */
OSAL_IRQ_HANDLER(STM32_USART2_HANDLER) {
 8002a00:	b5f8      	push	{r3, r4, r5, r6, r7, lr}
 8002a02:	4644      	mov	r4, r8
 8002a04:	4656      	mov	r6, sl
 8002a06:	464d      	mov	r5, r9
 8002a08:	465f      	mov	r7, fp
 8002a0a:	b4f0      	push	{r4, r5, r6, r7}
 * @brief   Common IRQ handler.
 *
 * @param[in] sdp       communication channel associated to the USART
 */
void sd_lld_serve_interrupt(SerialDriver *sdp) {
  USART_TypeDef *u = sdp->usart;
 8002a0c:	4c78      	ldr	r4, [pc, #480]	@ (8002bf0 <VectorB0+0x1f0>)

  OSAL_IRQ_PROLOGUE();
 8002a0e:	46f0      	mov	r8, lr
 8002a10:	6d66      	ldr	r6, [r4, #84]	@ 0x54
  uint32_t cr1;
  uint32_t isr;

  /* Reading and clearing status.*/
  isr = u->ISR;
 8002a12:	69f5      	ldr	r5, [r6, #28]
  u->ICR = isr;
 8002a14:	6235      	str	r5, [r6, #32]

  /* Error condition detection.*/
  if (isr & (USART_ISR_ORE | USART_ISR_NE | USART_ISR_FE  | USART_ISR_PE))
 8002a16:	072b      	lsls	r3, r5, #28
 8002a18:	d000      	beq.n	8002a1c <VectorB0+0x1c>
 8002a1a:	e0c6      	b.n	8002baa <VectorB0+0x1aa>
    set_error(sdp, isr);

  /* Special case, LIN break detection.*/
  if (isr & USART_ISR_LBDF) {
 8002a1c:	05eb      	lsls	r3, r5, #23
 8002a1e:	d500      	bpl.n	8002a22 <VectorB0+0x22>
 8002a20:	e0bb      	b.n	8002b9a <VectorB0+0x19a>
 8002a22:	1d23      	adds	r3, r4, #4
        an extra interrupt to serve.
     2) FIFO mode is enabled on devices that support it, we need to empty
        the FIFO.*/
  while (isr & USART_ISR_RXNE) {
    osalSysLockFromISR();
    sdIncomingDataI(sdp, (uint8_t)u->RDR & sdp->rxmask);
 8002a24:	275c      	movs	r7, #92	@ 0x5c
 8002a26:	4699      	mov	r9, r3
  while (isr & USART_ISR_RXNE) {
 8002a28:	06ab      	lsls	r3, r5, #26
 8002a2a:	d42b      	bmi.n	8002a84 <VectorB0+0x84>
 8002a2c:	e045      	b.n	8002aba <VectorB0+0xba>
  if (!iqIsFullI(iqp)) {
 8002a2e:	6a23      	ldr	r3, [r4, #32]
 8002a30:	6a62      	ldr	r2, [r4, #36]	@ 0x24
 8002a32:	4293      	cmp	r3, r2
 8002a34:	d035      	beq.n	8002aa2 <VectorB0+0xa2>
    iqp->q_counter++;
 8002a36:	6962      	ldr	r2, [r4, #20]
 8002a38:	3201      	adds	r2, #1
 8002a3a:	6162      	str	r2, [r4, #20]
    *iqp->q_wrptr++ = b;
 8002a3c:	1c5a      	adds	r2, r3, #1
 8002a3e:	6222      	str	r2, [r4, #32]
 8002a40:	701d      	strb	r5, [r3, #0]
    if (iqp->q_wrptr >= iqp->q_top) {
 8002a42:	6a22      	ldr	r2, [r4, #32]
 8002a44:	69e3      	ldr	r3, [r4, #28]
 8002a46:	429a      	cmp	r2, r3
 8002a48:	d301      	bcc.n	8002a4e <VectorB0+0x4e>
      iqp->q_wrptr = iqp->q_buffer;
 8002a4a:	69a3      	ldr	r3, [r4, #24]
 8002a4c:	6223      	str	r3, [r4, #32]
  if (ch_queue_notempty(&tqp->queue)) {
 8002a4e:	0022      	movs	r2, r4
  return (bool)(qp->next != qp);
 8002a50:	68e3      	ldr	r3, [r4, #12]
 8002a52:	320c      	adds	r2, #12
 8002a54:	4293      	cmp	r3, r2
 8002a56:	d011      	beq.n	8002a7c <VectorB0+0x7c>
  qp->next       = p->next;
 8002a58:	6819      	ldr	r1, [r3, #0]
 8002a5a:	60e1      	str	r1, [r4, #12]
  qp->next->prev = qp;
 8002a5c:	604a      	str	r2, [r1, #4]
 8002a5e:	2200      	movs	r2, #0
  tp->state = CH_STATE_READY;
 8002a60:	2124      	movs	r1, #36	@ 0x24
 8002a62:	629a      	str	r2, [r3, #40]	@ 0x28
 8002a64:	545a      	strb	r2, [r3, r1]
  return threadref(ch_pqueue_insert_behind(&tp->owner->rlist.pqueue,
 8002a66:	699a      	ldr	r2, [r3, #24]
  } while (unlikely(pqp->prio >= p->prio));
 8002a68:	6898      	ldr	r0, [r3, #8]
    pqp = pqp->next;
 8002a6a:	6812      	ldr	r2, [r2, #0]
  } while (unlikely(pqp->prio >= p->prio));
 8002a6c:	6891      	ldr	r1, [r2, #8]
 8002a6e:	4281      	cmp	r1, r0
 8002a70:	d2fb      	bcs.n	8002a6a <VectorB0+0x6a>
  p->prev       = pqp->prev;
 8002a72:	6851      	ldr	r1, [r2, #4]
  p->next       = pqp;
 8002a74:	601a      	str	r2, [r3, #0]
  p->prev       = pqp->prev;
 8002a76:	6059      	str	r1, [r3, #4]
  p->prev->next = p;
 8002a78:	600b      	str	r3, [r1, #0]
  pqp->prev     = p;
 8002a7a:	6053      	str	r3, [r2, #4]
  __ASM volatile ("cpsie i" : : : "memory");
 8002a7c:	b662      	cpsie	i
    osalSysUnlockFromISR();

    isr = u->ISR;
 8002a7e:	69f5      	ldr	r5, [r6, #28]
  while (isr & USART_ISR_RXNE) {
 8002a80:	06ab      	lsls	r3, r5, #26
 8002a82:	d51a      	bpl.n	8002aba <VectorB0+0xba>
  __ASM volatile ("cpsid i" : : : "memory");
 8002a84:	b672      	cpsid	i
    sdIncomingDataI(sdp, (uint8_t)u->RDR & sdp->rxmask);
 8002a86:	6a75      	ldr	r5, [r6, #36]	@ 0x24
 8002a88:	5de3      	ldrb	r3, [r4, r7]
 8002a8a:	401d      	ands	r5, r3
void sdIncomingDataI(SerialDriver *sdp, uint8_t b) {

  osalDbgCheckClassI();
  osalDbgCheck(sdp != NULL);

  if (iqIsEmptyI(&sdp->iqueue))
 8002a8c:	6963      	ldr	r3, [r4, #20]
 8002a8e:	2b00      	cmp	r3, #0
 8002a90:	d1cd      	bne.n	8002a2e <VectorB0+0x2e>
 8002a92:	2104      	movs	r1, #4
 8002a94:	4648      	mov	r0, r9
 8002a96:	f7fe fab3 	bl	8001000 <chEvtBroadcastFlagsI>
  if (!iqIsFullI(iqp)) {
 8002a9a:	6a23      	ldr	r3, [r4, #32]
 8002a9c:	6a62      	ldr	r2, [r4, #36]	@ 0x24
 8002a9e:	4293      	cmp	r3, r2
 8002aa0:	d1c9      	bne.n	8002a36 <VectorB0+0x36>
 8002aa2:	6962      	ldr	r2, [r4, #20]
 8002aa4:	2a00      	cmp	r2, #0
 8002aa6:	d0c6      	beq.n	8002a36 <VectorB0+0x36>
 8002aa8:	2180      	movs	r1, #128	@ 0x80
 8002aaa:	4648      	mov	r0, r9
 8002aac:	0109      	lsls	r1, r1, #4
 8002aae:	f7fe faa7 	bl	8001000 <chEvtBroadcastFlagsI>
  __ASM volatile ("cpsie i" : : : "memory");
 8002ab2:	b662      	cpsie	i
    isr = u->ISR;
 8002ab4:	69f5      	ldr	r5, [r6, #28]
  while (isr & USART_ISR_RXNE) {
 8002ab6:	06ab      	lsls	r3, r5, #26
 8002ab8:	d4e4      	bmi.n	8002a84 <VectorB0+0x84>
     situations:
     1) The data registers has been emptied immediately after writing it, this
        would cause an extra interrupt to serve.
     2) FIFO mode is enabled on devices that support it, we need to fill
        the FIFO.*/
  if (cr1 & USART_CR1_TXEIE) {
 8002aba:	2380      	movs	r3, #128	@ 0x80
  cr1 = u->CR1;
 8002abc:	6837      	ldr	r7, [r6, #0]
  if (cr1 & USART_CR1_TXEIE) {
 8002abe:	423b      	tst	r3, r7
 8002ac0:	d03e      	beq.n	8002b40 <VectorB0+0x140>
    while (isr & USART_ISR_TXE) {
 8002ac2:	422b      	tst	r3, r5
 8002ac4:	d03c      	beq.n	8002b40 <VectorB0+0x140>
 8002ac6:	0021      	movs	r1, r4
  tp->state = CH_STATE_READY;
 8002ac8:	3b5c      	subs	r3, #92	@ 0x5c
 8002aca:	4699      	mov	r9, r3
 8002acc:	335c      	adds	r3, #92	@ 0x5c
 8002ace:	469c      	mov	ip, r3
 8002ad0:	3130      	adds	r1, #48	@ 0x30
 8002ad2:	e026      	b.n	8002b22 <VectorB0+0x122>
    oqp->q_counter++;
 8002ad4:	6ba2      	ldr	r2, [r4, #56]	@ 0x38
 8002ad6:	3201      	adds	r2, #1
 8002ad8:	63a2      	str	r2, [r4, #56]	@ 0x38
    b = *oqp->q_rdptr++;
 8002ada:	1c5a      	adds	r2, r3, #1
 8002adc:	64a2      	str	r2, [r4, #72]	@ 0x48
 8002ade:	781d      	ldrb	r5, [r3, #0]
    if (oqp->q_rdptr >= oqp->q_top) {
 8002ae0:	6c23      	ldr	r3, [r4, #64]	@ 0x40
 8002ae2:	429a      	cmp	r2, r3
 8002ae4:	d301      	bcc.n	8002aea <VectorB0+0xea>
      oqp->q_rdptr = oqp->q_buffer;
 8002ae6:	6be3      	ldr	r3, [r4, #60]	@ 0x3c
 8002ae8:	64a3      	str	r3, [r4, #72]	@ 0x48
  return (bool)(qp->next != qp);
 8002aea:	6b23      	ldr	r3, [r4, #48]	@ 0x30
 8002aec:	428b      	cmp	r3, r1
 8002aee:	d012      	beq.n	8002b16 <VectorB0+0x116>
  qp->next       = p->next;
 8002af0:	681a      	ldr	r2, [r3, #0]
 8002af2:	2000      	movs	r0, #0
 8002af4:	6322      	str	r2, [r4, #48]	@ 0x30
  qp->next->prev = qp;
 8002af6:	6051      	str	r1, [r2, #4]
 8002af8:	464a      	mov	r2, r9
 8002afa:	6298      	str	r0, [r3, #40]	@ 0x28
 8002afc:	5498      	strb	r0, [r3, r2]
  } while (unlikely(pqp->prio >= p->prio));
 8002afe:	6898      	ldr	r0, [r3, #8]
  return threadref(ch_pqueue_insert_behind(&tp->owner->rlist.pqueue,
 8002b00:	699a      	ldr	r2, [r3, #24]
 8002b02:	4683      	mov	fp, r0
    pqp = pqp->next;
 8002b04:	6812      	ldr	r2, [r2, #0]
  } while (unlikely(pqp->prio >= p->prio));
 8002b06:	6890      	ldr	r0, [r2, #8]
 8002b08:	4558      	cmp	r0, fp
 8002b0a:	d2fb      	bcs.n	8002b04 <VectorB0+0x104>
  p->prev       = pqp->prev;
 8002b0c:	6850      	ldr	r0, [r2, #4]
  p->next       = pqp;
 8002b0e:	601a      	str	r2, [r3, #0]
  p->prev       = pqp->prev;
 8002b10:	6058      	str	r0, [r3, #4]
  p->prev->next = p;
 8002b12:	6003      	str	r3, [r0, #0]
  pqp->prev     = p;
 8002b14:	6053      	str	r3, [r2, #4]
        chnAddFlagsI(sdp, CHN_OUTPUT_EMPTY);
        cr1 &= ~USART_CR1_TXEIE;
        osalSysUnlockFromISR();
        break;
      }
      u->TDR = b;
 8002b16:	62b5      	str	r5, [r6, #40]	@ 0x28
 8002b18:	b662      	cpsie	i
    while (isr & USART_ISR_TXE) {
 8002b1a:	4663      	mov	r3, ip
      osalSysUnlockFromISR();

      isr = u->ISR;
 8002b1c:	69f5      	ldr	r5, [r6, #28]
    while (isr & USART_ISR_TXE) {
 8002b1e:	422b      	tst	r3, r5
 8002b20:	d00e      	beq.n	8002b40 <VectorB0+0x140>
  __ASM volatile ("cpsid i" : : : "memory");
 8002b22:	b672      	cpsid	i
  if (!oqIsEmptyI(oqp)) {
 8002b24:	6ca3      	ldr	r3, [r4, #72]	@ 0x48
 8002b26:	6c62      	ldr	r2, [r4, #68]	@ 0x44
 8002b28:	429a      	cmp	r2, r3
 8002b2a:	d1d3      	bne.n	8002ad4 <VectorB0+0xd4>
 8002b2c:	6ba2      	ldr	r2, [r4, #56]	@ 0x38
 8002b2e:	2a00      	cmp	r2, #0
 8002b30:	d0d0      	beq.n	8002ad4 <VectorB0+0xd4>
 8002b32:	2108      	movs	r1, #8
 8002b34:	1d20      	adds	r0, r4, #4
 8002b36:	f7fe fa63 	bl	8001000 <chEvtBroadcastFlagsI>
        cr1 &= ~USART_CR1_TXEIE;
 8002b3a:	2380      	movs	r3, #128	@ 0x80
 8002b3c:	439f      	bics	r7, r3
  __ASM volatile ("cpsie i" : : : "memory");
 8002b3e:	b662      	cpsie	i
    }
  }

  /* Physical transmission end.*/
  if ((cr1 & USART_CR1_TCIE) && (isr & USART_ISR_TC)) {
 8002b40:	2340      	movs	r3, #64	@ 0x40
 8002b42:	4699      	mov	r9, r3
 8002b44:	423b      	tst	r3, r7
 8002b46:	d001      	beq.n	8002b4c <VectorB0+0x14c>
 8002b48:	422b      	tst	r3, r5
 8002b4a:	d109      	bne.n	8002b60 <VectorB0+0x160>
  if (lr != 0xFFFFFFF1U) {
 8002b4c:	4643      	mov	r3, r8
    }
    osalSysUnlockFromISR();
  }

  /* Writing CR1 once.*/
  u->CR1 = cr1;
 8002b4e:	6037      	str	r7, [r6, #0]
 8002b50:	330f      	adds	r3, #15
 8002b52:	d10f      	bne.n	8002b74 <VectorB0+0x174>
  uart_lld_serve_interrupt(&UARTD2);
#endif
#endif

  OSAL_IRQ_EPILOGUE();
}
 8002b54:	bcf0      	pop	{r4, r5, r6, r7}
 8002b56:	46bb      	mov	fp, r7
 8002b58:	46b2      	mov	sl, r6
 8002b5a:	46a9      	mov	r9, r5
 8002b5c:	46a0      	mov	r8, r4
 8002b5e:	bdf8      	pop	{r3, r4, r5, r6, r7, pc}
  __ASM volatile ("cpsid i" : : : "memory");
 8002b60:	b672      	cpsid	i
    if (oqIsEmptyI(&sdp->oqueue)) {
 8002b62:	6c62      	ldr	r2, [r4, #68]	@ 0x44
 8002b64:	6ca3      	ldr	r3, [r4, #72]	@ 0x48
 8002b66:	429a      	cmp	r2, r3
 8002b68:	d037      	beq.n	8002bda <VectorB0+0x1da>
  __ASM volatile ("cpsie i" : : : "memory");
 8002b6a:	b662      	cpsie	i
 8002b6c:	4643      	mov	r3, r8
  u->CR1 = cr1;
 8002b6e:	6037      	str	r7, [r6, #0]
 8002b70:	330f      	adds	r3, #15
 8002b72:	d0ef      	beq.n	8002b54 <VectorB0+0x154>
  __ASM volatile ("cpsid i" : : : "memory");
 8002b74:	b672      	cpsid	i
  __ASM volatile ("MRS %0, psp"  : "=r" (result) );
 8002b76:	f3ef 8309 	mrs	r3, PSP
    ectxp--;
 8002b7a:	3b20      	subs	r3, #32
  __ASM volatile ("MSR psp, %0" : : "r" (topOfProcStack) : );
 8002b7c:	f383 8809 	msr	PSP, r3
    ectxp->xpsr = 0x01000000U;
 8002b80:	2280      	movs	r2, #128	@ 0x80
 8002b82:	0452      	lsls	r2, r2, #17
 8002b84:	61da      	str	r2, [r3, #28]
  tprio_t p1 = firstprio(&oip->rlist.pqueue);
 8002b86:	4a1b      	ldr	r2, [pc, #108]	@ (8002bf4 <VectorB0+0x1f4>)
 8002b88:	6811      	ldr	r1, [r2, #0]
  tprio_t p2 = tp->hdr.pqueue.prio;
 8002b8a:	68d2      	ldr	r2, [r2, #12]
    if (chSchIsPreemptionRequired()) {
 8002b8c:	6889      	ldr	r1, [r1, #8]
 8002b8e:	6892      	ldr	r2, [r2, #8]
 8002b90:	4291      	cmp	r1, r2
 8002b92:	d91f      	bls.n	8002bd4 <VectorB0+0x1d4>
      ectxp->pc = (uint32_t)__port_switch_from_isr;
 8002b94:	4a18      	ldr	r2, [pc, #96]	@ (8002bf8 <VectorB0+0x1f8>)
 8002b96:	619a      	str	r2, [r3, #24]
 8002b98:	e7dc      	b.n	8002b54 <VectorB0+0x154>
  __ASM volatile ("cpsid i" : : : "memory");
 8002b9a:	b672      	cpsid	i
 8002b9c:	2180      	movs	r1, #128	@ 0x80
 8002b9e:	4817      	ldr	r0, [pc, #92]	@ (8002bfc <VectorB0+0x1fc>)
 8002ba0:	00c9      	lsls	r1, r1, #3
 8002ba2:	f7fe fa2d 	bl	8001000 <chEvtBroadcastFlagsI>
  __ASM volatile ("cpsie i" : : : "memory");
 8002ba6:	b662      	cpsie	i
}
 8002ba8:	e73b      	b.n	8002a22 <VectorB0+0x22>
  if (isr & USART_ISR_ORE)
 8002baa:	2301      	movs	r3, #1
 8002bac:	08e9      	lsrs	r1, r5, #3
 8002bae:	4019      	ands	r1, r3
  if (isr & USART_ISR_PE)
 8002bb0:	402b      	ands	r3, r5
  if (isr & USART_ISR_ORE)
 8002bb2:	0209      	lsls	r1, r1, #8
  if (isr & USART_ISR_PE)
 8002bb4:	015b      	lsls	r3, r3, #5
 8002bb6:	4319      	orrs	r1, r3
  if (isr & USART_ISR_FE)
 8002bb8:	07ab      	lsls	r3, r5, #30
 8002bba:	d501      	bpl.n	8002bc0 <VectorB0+0x1c0>
    sts |= SD_FRAMING_ERROR;
 8002bbc:	2340      	movs	r3, #64	@ 0x40
 8002bbe:	4319      	orrs	r1, r3
  if (isr & USART_ISR_NE)
 8002bc0:	076b      	lsls	r3, r5, #29
 8002bc2:	d501      	bpl.n	8002bc8 <VectorB0+0x1c8>
    sts |= SD_NOISE_ERROR;
 8002bc4:	2380      	movs	r3, #128	@ 0x80
 8002bc6:	4319      	orrs	r1, r3
  __ASM volatile ("cpsid i" : : : "memory");
 8002bc8:	b672      	cpsid	i
  chEvtBroadcastFlagsI(esp, flags);
 8002bca:	480c      	ldr	r0, [pc, #48]	@ (8002bfc <VectorB0+0x1fc>)
 8002bcc:	f7fe fa18 	bl	8001000 <chEvtBroadcastFlagsI>
  __ASM volatile ("cpsie i" : : : "memory");
 8002bd0:	b662      	cpsie	i
}
 8002bd2:	e723      	b.n	8002a1c <VectorB0+0x1c>
      ectxp->pc = (uint32_t)__port_exit_from_isr;
 8002bd4:	4a0a      	ldr	r2, [pc, #40]	@ (8002c00 <VectorB0+0x200>)
 8002bd6:	619a      	str	r2, [r3, #24]
 8002bd8:	e7bc      	b.n	8002b54 <VectorB0+0x154>
    if (oqIsEmptyI(&sdp->oqueue)) {
 8002bda:	6ba3      	ldr	r3, [r4, #56]	@ 0x38
 8002bdc:	2b00      	cmp	r3, #0
 8002bde:	d0c4      	beq.n	8002b6a <VectorB0+0x16a>
 8002be0:	2110      	movs	r1, #16
 8002be2:	1d20      	adds	r0, r4, #4
 8002be4:	f7fe fa0c 	bl	8001000 <chEvtBroadcastFlagsI>
      cr1 &= ~USART_CR1_TCIE;
 8002be8:	464b      	mov	r3, r9
 8002bea:	439f      	bics	r7, r3
 8002bec:	e7bd      	b.n	8002b6a <VectorB0+0x16a>
 8002bee:	46c0      	nop			@ (mov r8, r8)
 8002bf0:	20000f20 	.word	0x20000f20
 8002bf4:	200010b0 	.word	0x200010b0
 8002bf8:	080001c7 	.word	0x080001c7
 8002bfc:	20000f24 	.word	0x20000f24
 8002c00:	080001ca 	.word	0x080001ca
	...

08002c10 <Vector94>:
/**
 * @brief   TIM16 interrupt handler.
 *
 * @isr
 */
OSAL_IRQ_HANDLER(STM32_TIM16_HANDLER) {
 8002c10:	b570      	push	{r4, r5, r6, lr}
 * @notapi
 */
void pwm_lld_serve_interrupt(PWMDriver *pwmp) {
  uint32_t sr;

  sr  = pwmp->tim->SR;
 8002c12:	4d25      	ldr	r5, [pc, #148]	@ (8002ca8 <Vector94+0x98>)

  OSAL_IRQ_PROLOGUE();
 8002c14:	4676      	mov	r6, lr
 8002c16:	69ea      	ldr	r2, [r5, #28]
 8002c18:	6913      	ldr	r3, [r2, #16]
  sr &= pwmp->tim->DIER & STM32_TIM_DIER_IRQ_MASK;
 8002c1a:	68d4      	ldr	r4, [r2, #12]
 8002c1c:	401c      	ands	r4, r3
 8002c1e:	23ff      	movs	r3, #255	@ 0xff
 8002c20:	4023      	ands	r3, r4
  pwmp->tim->SR = ~sr;
 8002c22:	43db      	mvns	r3, r3
 8002c24:	6113      	str	r3, [r2, #16]
  if (((sr & STM32_TIM_SR_CC1IF) != 0) &&
 8002c26:	07a3      	lsls	r3, r4, #30
 8002c28:	d505      	bpl.n	8002c36 <Vector94+0x26>
      (pwmp->config->channels[0].callback != NULL))
 8002c2a:	686b      	ldr	r3, [r5, #4]
 8002c2c:	691b      	ldr	r3, [r3, #16]
  if (((sr & STM32_TIM_SR_CC1IF) != 0) &&
 8002c2e:	2b00      	cmp	r3, #0
 8002c30:	d001      	beq.n	8002c36 <Vector94+0x26>
    pwmp->config->channels[0].callback(pwmp);
 8002c32:	0028      	movs	r0, r5
 8002c34:	4798      	blx	r3
  if (((sr & STM32_TIM_SR_CC2IF) != 0) &&
 8002c36:	0763      	lsls	r3, r4, #29
 8002c38:	d505      	bpl.n	8002c46 <Vector94+0x36>
      (pwmp->config->channels[1].callback != NULL))
 8002c3a:	686b      	ldr	r3, [r5, #4]
 8002c3c:	699b      	ldr	r3, [r3, #24]
  if (((sr & STM32_TIM_SR_CC2IF) != 0) &&
 8002c3e:	2b00      	cmp	r3, #0
 8002c40:	d001      	beq.n	8002c46 <Vector94+0x36>
    pwmp->config->channels[1].callback(pwmp);
 8002c42:	0028      	movs	r0, r5
 8002c44:	4798      	blx	r3
  if (((sr & STM32_TIM_SR_CC3IF) != 0) &&
 8002c46:	0723      	lsls	r3, r4, #28
 8002c48:	d505      	bpl.n	8002c56 <Vector94+0x46>
      (pwmp->config->channels[2].callback != NULL))
 8002c4a:	686b      	ldr	r3, [r5, #4]
 8002c4c:	6a1b      	ldr	r3, [r3, #32]
  if (((sr & STM32_TIM_SR_CC3IF) != 0) &&
 8002c4e:	2b00      	cmp	r3, #0
 8002c50:	d001      	beq.n	8002c56 <Vector94+0x46>
    pwmp->config->channels[2].callback(pwmp);
 8002c52:	0028      	movs	r0, r5
 8002c54:	4798      	blx	r3
  if (((sr & STM32_TIM_SR_CC4IF) != 0) &&
 8002c56:	06e3      	lsls	r3, r4, #27
 8002c58:	d505      	bpl.n	8002c66 <Vector94+0x56>
      (pwmp->config->channels[3].callback != NULL))
 8002c5a:	686b      	ldr	r3, [r5, #4]
 8002c5c:	6a9b      	ldr	r3, [r3, #40]	@ 0x28
  if (((sr & STM32_TIM_SR_CC4IF) != 0) &&
 8002c5e:	2b00      	cmp	r3, #0
 8002c60:	d001      	beq.n	8002c66 <Vector94+0x56>
    pwmp->config->channels[3].callback(pwmp);
 8002c62:	0028      	movs	r0, r5
 8002c64:	4798      	blx	r3
  if (((sr & STM32_TIM_SR_UIF) != 0) && (pwmp->config->callback != NULL))
 8002c66:	07e4      	lsls	r4, r4, #31
 8002c68:	d505      	bpl.n	8002c76 <Vector94+0x66>
 8002c6a:	686b      	ldr	r3, [r5, #4]
 8002c6c:	689b      	ldr	r3, [r3, #8]
 8002c6e:	2b00      	cmp	r3, #0
 8002c70:	d001      	beq.n	8002c76 <Vector94+0x66>
    pwmp->config->callback(pwmp);
 8002c72:	0028      	movs	r0, r5
 8002c74:	4798      	blx	r3
  if (lr != 0xFFFFFFF1U) {
 8002c76:	360f      	adds	r6, #15
 8002c78:	d100      	bne.n	8002c7c <Vector94+0x6c>
  st_lld_serve_interrupt();
#endif
#endif

  OSAL_IRQ_EPILOGUE();
}
 8002c7a:	bd70      	pop	{r4, r5, r6, pc}
  __ASM volatile ("cpsid i" : : : "memory");
 8002c7c:	b672      	cpsid	i
  __ASM volatile ("MRS %0, psp"  : "=r" (result) );
 8002c7e:	f3ef 8309 	mrs	r3, PSP
    ectxp--;
 8002c82:	3b20      	subs	r3, #32
  __ASM volatile ("MSR psp, %0" : : "r" (topOfProcStack) : );
 8002c84:	f383 8809 	msr	PSP, r3
    ectxp->xpsr = 0x01000000U;
 8002c88:	2280      	movs	r2, #128	@ 0x80
 8002c8a:	0452      	lsls	r2, r2, #17
 8002c8c:	61da      	str	r2, [r3, #28]
  tprio_t p1 = firstprio(&oip->rlist.pqueue);
 8002c8e:	4a07      	ldr	r2, [pc, #28]	@ (8002cac <Vector94+0x9c>)
 8002c90:	6811      	ldr	r1, [r2, #0]
  tprio_t p2 = tp->hdr.pqueue.prio;
 8002c92:	68d2      	ldr	r2, [r2, #12]
    if (chSchIsPreemptionRequired()) {
 8002c94:	6889      	ldr	r1, [r1, #8]
 8002c96:	6892      	ldr	r2, [r2, #8]
 8002c98:	4291      	cmp	r1, r2
 8002c9a:	d902      	bls.n	8002ca2 <Vector94+0x92>
      ectxp->pc = (uint32_t)__port_switch_from_isr;
 8002c9c:	4a04      	ldr	r2, [pc, #16]	@ (8002cb0 <Vector94+0xa0>)
 8002c9e:	619a      	str	r2, [r3, #24]
 8002ca0:	e7eb      	b.n	8002c7a <Vector94+0x6a>
      ectxp->pc = (uint32_t)__port_exit_from_isr;
 8002ca2:	4a04      	ldr	r2, [pc, #16]	@ (8002cb4 <Vector94+0xa4>)
 8002ca4:	619a      	str	r2, [r3, #24]
 8002ca6:	e7e8      	b.n	8002c7a <Vector94+0x6a>
 8002ca8:	20000f00 	.word	0x20000f00
 8002cac:	200010b0 	.word	0x200010b0
 8002cb0:	080001c7 	.word	0x080001c7
 8002cb4:	080001ca 	.word	0x080001ca
	...

08002cc0 <Vector98>:
/**
 * @brief   TIM17 interrupt handler.
 *
 * @isr
 */
OSAL_IRQ_HANDLER(STM32_TIM17_HANDLER) {
 8002cc0:	b5f0      	push	{r4, r5, r6, r7, lr}
 8002cc2:	4657      	mov	r7, sl
 8002cc4:	464e      	mov	r6, r9
 8002cc6:	4645      	mov	r5, r8
 8002cc8:	b4e0      	push	{r5, r6, r7}
void st_lld_serve_interrupt(void) {
#if OSAL_ST_MODE == OSAL_ST_MODE_FREERUNNING
  uint32_t sr;
  stm32_tim_t *timp = STM32_ST_TIM;

  sr  = timp->SR;
 8002cca:	4f5c      	ldr	r7, [pc, #368]	@ (8002e3c <Vector98+0x17c>)

  OSAL_IRQ_PROLOGUE();
 8002ccc:	46f2      	mov	sl, lr
 8002cce:	693a      	ldr	r2, [r7, #16]
  sr &= timp->DIER & STM32_TIM_DIER_IRQ_MASK;
 8002cd0:	68fb      	ldr	r3, [r7, #12]
 8002cd2:	4013      	ands	r3, r2
 8002cd4:	22ff      	movs	r2, #255	@ 0xff
 8002cd6:	401a      	ands	r2, r3
  timp->SR = ~sr;
 8002cd8:	43d2      	mvns	r2, r2
 8002cda:	613a      	str	r2, [r7, #16]

  if ((sr & TIM_SR_CC1IF) != 0U)
 8002cdc:	079b      	lsls	r3, r3, #30
 8002cde:	d41a      	bmi.n	8002d16 <Vector98+0x56>
  if (lr != 0xFFFFFFF1U) {
 8002ce0:	4653      	mov	r3, sl
 8002ce2:	330f      	adds	r3, #15
 8002ce4:	d104      	bne.n	8002cf0 <Vector98+0x30>
  st_lld_serve_interrupt();
#endif
#endif

  OSAL_IRQ_EPILOGUE();
}
 8002ce6:	bce0      	pop	{r5, r6, r7}
 8002ce8:	46ba      	mov	sl, r7
 8002cea:	46b1      	mov	r9, r6
 8002cec:	46a8      	mov	r8, r5
 8002cee:	bdf0      	pop	{r4, r5, r6, r7, pc}
  __ASM volatile ("cpsid i" : : : "memory");
 8002cf0:	b672      	cpsid	i
  __ASM volatile ("MRS %0, psp"  : "=r" (result) );
 8002cf2:	f3ef 8309 	mrs	r3, PSP
    ectxp--;
 8002cf6:	3b20      	subs	r3, #32
  __ASM volatile ("MSR psp, %0" : : "r" (topOfProcStack) : );
 8002cf8:	f383 8809 	msr	PSP, r3
    ectxp->xpsr = 0x01000000U;
 8002cfc:	2280      	movs	r2, #128	@ 0x80
 8002cfe:	0452      	lsls	r2, r2, #17
 8002d00:	61da      	str	r2, [r3, #28]
  tprio_t p1 = firstprio(&oip->rlist.pqueue);
 8002d02:	4a4f      	ldr	r2, [pc, #316]	@ (8002e40 <Vector98+0x180>)
 8002d04:	6811      	ldr	r1, [r2, #0]
  tprio_t p2 = tp->hdr.pqueue.prio;
 8002d06:	68d2      	ldr	r2, [r2, #12]
    if (chSchIsPreemptionRequired()) {
 8002d08:	6889      	ldr	r1, [r1, #8]
 8002d0a:	6892      	ldr	r2, [r2, #8]
 8002d0c:	4291      	cmp	r1, r2
 8002d0e:	d96a      	bls.n	8002de6 <Vector98+0x126>
      ectxp->pc = (uint32_t)__port_switch_from_isr;
 8002d10:	4a4c      	ldr	r2, [pc, #304]	@ (8002e44 <Vector98+0x184>)
 8002d12:	619a      	str	r2, [r3, #24]
 8002d14:	e7e7      	b.n	8002ce6 <Vector98+0x26>
  __ASM volatile ("cpsid i" : : : "memory");
 8002d16:	b672      	cpsid	i
    lasttime = chTimeAddX(vtlp->lasttime, vtp->dlist.delta);
    vtlp->lasttime = lasttime;

    /* Removing the timer from the list, marking it as not armed.*/
    (void) ch_dlist_dequeue(&vtp->dlist);
    vtp->dlist.next = NULL;
 8002d18:	2300      	movs	r3, #0
 8002d1a:	4698      	mov	r8, r3
 8002d1c:	4e48      	ldr	r6, [pc, #288]	@ (8002e40 <Vector98+0x180>)

    /* If the list becomes empty then the alarm is disabled.*/
    if (ch_dlist_isempty(&vtlp->dlist)) {
 8002d1e:	2310      	movs	r3, #16
 8002d20:	4699      	mov	r9, r3
 8002d22:	44b1      	add	r9, r6
 8002d24:	e008      	b.n	8002d38 <Vector98+0x78>
  __ASM volatile ("cpsie i" : : : "memory");
 8002d26:	b662      	cpsie	i
    /* The callback is invoked outside the kernel critical section, it
       is re-entered on the callback return. Note that "lasttime" can be
       modified within the callback if some timer function is called.*/
    chSysUnlockFromISR();

    vtp->func(vtp, vtp->par);
 8002d28:	0020      	movs	r0, r4
 8002d2a:	6921      	ldr	r1, [r4, #16]
 8002d2c:	68e3      	ldr	r3, [r4, #12]
 8002d2e:	4798      	blx	r3
  __ASM volatile ("cpsid i" : : : "memory");
 8002d30:	b672      	cpsid	i

    chSysLockFromISR();

    /* If a reload is defined the timer needs to be restarted.*/
    if (unlikely(vtp->reload > (sysinterval_t)0)) {
 8002d32:	8aa2      	ldrh	r2, [r4, #20]
 8002d34:	2a00      	cmp	r2, #0
 8002d36:	d117      	bne.n	8002d68 <Vector98+0xa8>
  return (systime_t)STM32_ST_TIM->CNT;
 8002d38:	6a7a      	ldr	r2, [r7, #36]	@ 0x24
    vtp = (virtual_timer_t *)vtlp->dlist.next;
 8002d3a:	6934      	ldr	r4, [r6, #16]
    nowdelta = chTimeDiffX(vtlp->lasttime, now);
 8002d3c:	8bb3      	ldrh	r3, [r6, #28]
 8002d3e:	b292      	uxth	r2, r2
 8002d40:	1ad1      	subs	r1, r2, r3
    if (nowdelta < vtp->dlist.delta) {
 8002d42:	8920      	ldrh	r0, [r4, #8]
 8002d44:	b289      	uxth	r1, r1
 8002d46:	4281      	cmp	r1, r0
 8002d48:	d334      	bcc.n	8002db4 <Vector98+0xf4>
  return systime + (systime_t)interval;
 8002d4a:	181b      	adds	r3, r3, r0
  dlp->prev->next = dlp->next;
 8002d4c:	6862      	ldr	r2, [r4, #4]
 8002d4e:	b29d      	uxth	r5, r3
 8002d50:	6823      	ldr	r3, [r4, #0]
    vtlp->lasttime = lasttime;
 8002d52:	83b5      	strh	r5, [r6, #28]
 8002d54:	6013      	str	r3, [r2, #0]
  dlp->next->prev = dlp->prev;
 8002d56:	605a      	str	r2, [r3, #4]
    vtp->dlist.next = NULL;
 8002d58:	4643      	mov	r3, r8
 8002d5a:	6023      	str	r3, [r4, #0]
    if (ch_dlist_isempty(&vtlp->dlist)) {
 8002d5c:	6933      	ldr	r3, [r6, #16]
 8002d5e:	454b      	cmp	r3, r9
 8002d60:	d1e1      	bne.n	8002d26 <Vector98+0x66>
  STM32_ST_TIM->DIER = 0U;
 8002d62:	4643      	mov	r3, r8
 8002d64:	60fb      	str	r3, [r7, #12]
 8002d66:	e7de      	b.n	8002d26 <Vector98+0x66>
  return (systime_t)STM32_ST_TIM->CNT;
 8002d68:	6a79      	ldr	r1, [r7, #36]	@ 0x24
  return (bool)(dlhp == dlhp->next);
 8002d6a:	6930      	ldr	r0, [r6, #16]
 8002d6c:	b289      	uxth	r1, r1
  return (sysinterval_t)((systime_t)(end - start));
 8002d6e:	1b4b      	subs	r3, r1, r5
 8002d70:	b29b      	uxth	r3, r3
      now = chVTGetSystemTimeX();
      nowdelta = chTimeDiffX(lasttime, now);

#if !defined(CH_VT_RFCU_DISABLED)
      /* Checking if the required reload is feasible.*/
      if (nowdelta > vtp->reload) {
 8002d72:	429a      	cmp	r2, r3
 8002d74:	d33c      	bcc.n	8002df0 <Vector98+0x130>

        delay = (sysinterval_t)0;
      }
      else {
        /* Enqueuing the timer again using the calculated delta.*/
        delay = vtp->reload - nowdelta;
 8002d76:	1a6d      	subs	r5, r5, r1
 8002d78:	1952      	adds	r2, r2, r5
      /* Enqueuing the timer again using the calculated delta.*/
      delay = vtp->reload - nowdelta;
#endif

      /* Special case where the timers list is empty.*/
      if (ch_dlist_isempty(&vtlp->dlist)) {
 8002d7a:	0035      	movs	r5, r6
 8002d7c:	3510      	adds	r5, #16
        delay = vtp->reload - nowdelta;
 8002d7e:	b292      	uxth	r2, r2
      if (ch_dlist_isempty(&vtlp->dlist)) {
 8002d80:	42a8      	cmp	r0, r5
 8002d82:	d053      	beq.n	8002e2c <Vector98+0x16c>

      /* Delay as delta from 'lasttime'. Note, it can overflow and the value
         becomes lower than 'nowdelta'. In that case the delta is shortened
         to make it fit the numeric range and the timer will be triggered
         "nowdelta" cycles earlier.*/
      delta = nowdelta + delay;
 8002d84:	1899      	adds	r1, r3, r2
 8002d86:	b289      	uxth	r1, r1
      if (delta < nowdelta) {
 8002d88:	428b      	cmp	r3, r1
 8002d8a:	d803      	bhi.n	8002d94 <Vector98+0xd4>
 8002d8c:	e052      	b.n	8002e34 <Vector98+0x174>
    delta -= dlp->delta;
 8002d8e:	1ad2      	subs	r2, r2, r3
    dlp = dlp->next;
 8002d90:	6800      	ldr	r0, [r0, #0]
    delta -= dlp->delta;
 8002d92:	b292      	uxth	r2, r2
  while (likely(dlp->delta < delta)) {
 8002d94:	8903      	ldrh	r3, [r0, #8]
 8002d96:	4293      	cmp	r3, r2
 8002d98:	d3f9      	bcc.n	8002d8e <Vector98+0xce>
  dlp->prev       = dlp->next->prev;
 8002d9a:	6843      	ldr	r3, [r0, #4]
  dlp->delta      = delta;
 8002d9c:	8122      	strh	r2, [r4, #8]
  dlp->next       = dlhp;
 8002d9e:	6020      	str	r0, [r4, #0]
  dlp->prev       = dlp->next->prev;
 8002da0:	6063      	str	r3, [r4, #4]
  dlp->prev->next = dlp;
 8002da2:	601c      	str	r4, [r3, #0]
  dlp->delta -= delta;
 8002da4:	8903      	ldrh	r3, [r0, #8]
  dlhp->prev      = dlp;
 8002da6:	6044      	str	r4, [r0, #4]
  dlp->delta -= delta;
 8002da8:	1a9b      	subs	r3, r3, r2
 8002daa:	8103      	strh	r3, [r0, #8]
  dlhp->delta = (sysinterval_t)-1;
 8002dac:	2301      	movs	r3, #1
 8002dae:	425b      	negs	r3, r3
 8002db0:	8333      	strh	r3, [r6, #24]
}
 8002db2:	e7b4      	b.n	8002d1e <Vector98+0x5e>
      ch_dlist_insert(&vtlp->dlist, &vtp->dlist, delta);
    }
  }

  /* If the list is empty, nothing else to do.*/
  if (ch_dlist_isempty(&vtlp->dlist)) {
 8002db4:	0031      	movs	r1, r6
 8002db6:	3110      	adds	r1, #16
 8002db8:	428c      	cmp	r4, r1
 8002dba:	d012      	beq.n	8002de2 <Vector98+0x122>
  }

  /* The "unprocessed nowdelta" time slice is added to "last time"
     and subtracted to next timer's delta.*/
  vtlp->lasttime += nowdelta;
  vtp->dlist.delta -= nowdelta;
 8002dbc:	181b      	adds	r3, r3, r0
 8002dbe:	1a9b      	subs	r3, r3, r2
 8002dc0:	b29b      	uxth	r3, r3
  vtlp->lasttime += nowdelta;
 8002dc2:	83b2      	strh	r2, [r6, #28]
  if (delay < currdelta) {
 8002dc4:	1c19      	adds	r1, r3, #0
  vtp->dlist.delta -= nowdelta;
 8002dc6:	8123      	strh	r3, [r4, #8]
  if (delay < currdelta) {
 8002dc8:	2b02      	cmp	r3, #2
 8002dca:	d30f      	bcc.n	8002dec <Vector98+0x12c>
 8002dcc:	b28b      	uxth	r3, r1
  STM32_ST_TIM->CCR[0] = (uint32_t)abstime;
 8002dce:	481b      	ldr	r0, [pc, #108]	@ (8002e3c <Vector98+0x17c>)
  return systime + (systime_t)interval;
 8002dd0:	18d1      	adds	r1, r2, r3
 8002dd2:	b289      	uxth	r1, r1
 8002dd4:	6341      	str	r1, [r0, #52]	@ 0x34
  return (systime_t)STM32_ST_TIM->CNT;
 8002dd6:	6a41      	ldr	r1, [r0, #36]	@ 0x24
 8002dd8:	b289      	uxth	r1, r1
  return (sysinterval_t)((systime_t)(end - start));
 8002dda:	1a8a      	subs	r2, r1, r2
    if (likely(nowdelta < delay)) {
 8002ddc:	b292      	uxth	r2, r2
 8002dde:	429a      	cmp	r2, r3
 8002de0:	d210      	bcs.n	8002e04 <Vector98+0x144>
  __ASM volatile ("cpsie i" : : : "memory");
 8002de2:	b662      	cpsie	i
}
 8002de4:	e77c      	b.n	8002ce0 <Vector98+0x20>
      ectxp->pc = (uint32_t)__port_exit_from_isr;
 8002de6:	4a18      	ldr	r2, [pc, #96]	@ (8002e48 <Vector98+0x188>)
 8002de8:	619a      	str	r2, [r3, #24]
 8002dea:	e77c      	b.n	8002ce6 <Vector98+0x26>
  if (delay < currdelta) {
 8002dec:	2102      	movs	r1, #2
 8002dee:	e7ed      	b.n	8002dcc <Vector98+0x10c>
  currcore->rfcu.mask |= mask;
 8002df0:	2502      	movs	r5, #2
 8002df2:	6b72      	ldr	r2, [r6, #52]	@ 0x34
 8002df4:	432a      	orrs	r2, r5
 8002df6:	6372      	str	r2, [r6, #52]	@ 0x34
      if (ch_dlist_isempty(&vtlp->dlist)) {
 8002df8:	0032      	movs	r2, r6
 8002dfa:	3210      	adds	r2, #16
 8002dfc:	4290      	cmp	r0, r2
 8002dfe:	d014      	beq.n	8002e2a <Vector98+0x16a>
      delta = nowdelta + delay;
 8002e00:	001a      	movs	r2, r3
 8002e02:	e7c7      	b.n	8002d94 <Vector98+0xd4>
    if (likely(nowdelta < delay)) {
 8002e04:	2302      	movs	r3, #2
    currdelta += (sysinterval_t)1;
 8002e06:	3301      	adds	r3, #1
 8002e08:	b29b      	uxth	r3, r3
  return systime + (systime_t)interval;
 8002e0a:	18ca      	adds	r2, r1, r3
  STM32_ST_TIM->CCR[0] = (uint32_t)abstime;
 8002e0c:	b292      	uxth	r2, r2
 8002e0e:	6342      	str	r2, [r0, #52]	@ 0x34
  return (systime_t)STM32_ST_TIM->CNT;
 8002e10:	6a42      	ldr	r2, [r0, #36]	@ 0x24
 8002e12:	b292      	uxth	r2, r2
  return (sysinterval_t)((systime_t)(end - start));
 8002e14:	1a51      	subs	r1, r2, r1
    if (likely(nowdelta < delay)) {
 8002e16:	b289      	uxth	r1, r1
 8002e18:	4299      	cmp	r1, r3
 8002e1a:	d20d      	bcs.n	8002e38 <Vector98+0x178>
  if (currdelta > CH_CFG_ST_TIMEDELTA) {
 8002e1c:	2b02      	cmp	r3, #2
 8002e1e:	d9e0      	bls.n	8002de2 <Vector98+0x122>
 8002e20:	2201      	movs	r2, #1
 8002e22:	6b73      	ldr	r3, [r6, #52]	@ 0x34
 8002e24:	4313      	orrs	r3, r2
 8002e26:	6373      	str	r3, [r6, #52]	@ 0x34
}
 8002e28:	e7db      	b.n	8002de2 <Vector98+0x122>
        delay = (sysinterval_t)0;
 8002e2a:	2200      	movs	r2, #0
        vt_insert_first(vtlp, vtp, now, delay);
 8002e2c:	0020      	movs	r0, r4
 8002e2e:	f7fe f9df 	bl	80011f0 <vt_insert_first.constprop.0>
        return;
 8002e32:	e7d6      	b.n	8002de2 <Vector98+0x122>
      delta = nowdelta + delay;
 8002e34:	000a      	movs	r2, r1
  while (likely(dlp->delta < delta)) {
 8002e36:	e7ad      	b.n	8002d94 <Vector98+0xd4>
 8002e38:	0011      	movs	r1, r2
 8002e3a:	e7e4      	b.n	8002e06 <Vector98+0x146>
 8002e3c:	40014800 	.word	0x40014800
 8002e40:	200010b0 	.word	0x200010b0
 8002e44:	080001c7 	.word	0x080001c7
 8002e48:	080001ca 	.word	0x080001ca
 8002e4c:	00000000 	.word	0x00000000

08002e50 <Vector64>:
  flags = (dmastp->dma->ISR >> dmastp->shift) & STM32_DMA_ISR_MASK;
 8002e50:	210e      	movs	r1, #14
 8002e52:	4b14      	ldr	r3, [pc, #80]	@ (8002ea4 <Vector64+0x54>)
OSAL_IRQ_HANDLER(STM32_DMA1_CH1_HANDLER) {
 8002e54:	b510      	push	{r4, lr}
  flags = (dmastp->dma->ISR >> dmastp->shift) & STM32_DMA_ISR_MASK;
 8002e56:	681a      	ldr	r2, [r3, #0]
  OSAL_IRQ_PROLOGUE();
 8002e58:	4674      	mov	r4, lr
  flags = (dmastp->dma->ISR >> dmastp->shift) & STM32_DMA_ISR_MASK;
 8002e5a:	4011      	ands	r1, r2
  if (flags & dmastp->channel->CCR) {
 8002e5c:	4a12      	ldr	r2, [pc, #72]	@ (8002ea8 <Vector64+0x58>)
 8002e5e:	6812      	ldr	r2, [r2, #0]
 8002e60:	420a      	tst	r2, r1
 8002e62:	d006      	beq.n	8002e72 <Vector64+0x22>
    if (dma.streams[selfindex].func) {
 8002e64:	4a11      	ldr	r2, [pc, #68]	@ (8002eac <Vector64+0x5c>)
    dmastp->dma->IFCR = flags << dmastp->shift;
 8002e66:	6059      	str	r1, [r3, #4]
    if (dma.streams[selfindex].func) {
 8002e68:	6893      	ldr	r3, [r2, #8]
 8002e6a:	2b00      	cmp	r3, #0
 8002e6c:	d001      	beq.n	8002e72 <Vector64+0x22>
      dma.streams[selfindex].func(dma.streams[selfindex].param, flags);
 8002e6e:	68d0      	ldr	r0, [r2, #12]
 8002e70:	4798      	blx	r3
  if (lr != 0xFFFFFFF1U) {
 8002e72:	340f      	adds	r4, #15
 8002e74:	d100      	bne.n	8002e78 <Vector64+0x28>
}
 8002e76:	bd10      	pop	{r4, pc}
  __ASM volatile ("cpsid i" : : : "memory");
 8002e78:	b672      	cpsid	i
  __ASM volatile ("MRS %0, psp"  : "=r" (result) );
 8002e7a:	f3ef 8309 	mrs	r3, PSP
    ectxp--;
 8002e7e:	3b20      	subs	r3, #32
  __ASM volatile ("MSR psp, %0" : : "r" (topOfProcStack) : );
 8002e80:	f383 8809 	msr	PSP, r3
    ectxp->xpsr = 0x01000000U;
 8002e84:	2280      	movs	r2, #128	@ 0x80
 8002e86:	0452      	lsls	r2, r2, #17
 8002e88:	61da      	str	r2, [r3, #28]
  tprio_t p1 = firstprio(&oip->rlist.pqueue);
 8002e8a:	4a09      	ldr	r2, [pc, #36]	@ (8002eb0 <Vector64+0x60>)
 8002e8c:	6811      	ldr	r1, [r2, #0]
  tprio_t p2 = tp->hdr.pqueue.prio;
 8002e8e:	68d2      	ldr	r2, [r2, #12]
    if (chSchIsPreemptionRequired()) {
 8002e90:	6889      	ldr	r1, [r1, #8]
 8002e92:	6892      	ldr	r2, [r2, #8]
 8002e94:	4291      	cmp	r1, r2
 8002e96:	d902      	bls.n	8002e9e <Vector64+0x4e>
      ectxp->pc = (uint32_t)__port_switch_from_isr;
 8002e98:	4a06      	ldr	r2, [pc, #24]	@ (8002eb4 <Vector64+0x64>)
 8002e9a:	619a      	str	r2, [r3, #24]
 8002e9c:	e7eb      	b.n	8002e76 <Vector64+0x26>
      ectxp->pc = (uint32_t)__port_exit_from_isr;
 8002e9e:	4a06      	ldr	r2, [pc, #24]	@ (8002eb8 <Vector64+0x68>)
 8002ea0:	619a      	str	r2, [r3, #24]
 8002ea2:	e7e8      	b.n	8002e76 <Vector64+0x26>
 8002ea4:	40020000 	.word	0x40020000
 8002ea8:	40020008 	.word	0x40020008
 8002eac:	20001080 	.word	0x20001080
 8002eb0:	200010b0 	.word	0x200010b0
 8002eb4:	080001c7 	.word	0x080001c7
 8002eb8:	080001ca 	.word	0x080001ca
 8002ebc:	00000000 	.word	0x00000000

08002ec0 <Vector60>:
  istr = usbp->usb->ISTR;
 8002ec0:	4bd1      	ldr	r3, [pc, #836]	@ (8003208 <Vector60+0x348>)
OSAL_IRQ_HANDLER(STM32_USB1_LP_HANDLER) {
 8002ec2:	b5f0      	push	{r4, r5, r6, r7, lr}
 8002ec4:	4656      	mov	r6, sl
  istr = usbp->usb->ISTR;
 8002ec6:	469a      	mov	sl, r3
OSAL_IRQ_HANDLER(STM32_USB1_LP_HANDLER) {
 8002ec8:	464d      	mov	r5, r9
 8002eca:	4644      	mov	r4, r8
  istr = usbp->usb->ISTR;
 8002ecc:	2384      	movs	r3, #132	@ 0x84
OSAL_IRQ_HANDLER(STM32_USB1_LP_HANDLER) {
 8002ece:	465f      	mov	r7, fp
  istr = usbp->usb->ISTR;
 8002ed0:	4652      	mov	r2, sl
OSAL_IRQ_HANDLER(STM32_USB1_LP_HANDLER) {
 8002ed2:	b4f0      	push	{r4, r5, r6, r7}
  istr = usbp->usb->ISTR;
 8002ed4:	58d6      	ldr	r6, [r2, r3]
  OSAL_IRQ_PROLOGUE();
 8002ed6:	4675      	mov	r5, lr
  istr = usbp->usb->ISTR;
 8002ed8:	6c74      	ldr	r4, [r6, #68]	@ 0x44
OSAL_IRQ_HANDLER(STM32_USB1_LP_HANDLER) {
 8002eda:	b089      	sub	sp, #36	@ 0x24
  usbp->usb->ISTR = ~istr;
 8002edc:	43e3      	mvns	r3, r4
 8002ede:	6473      	str	r3, [r6, #68]	@ 0x44
  if (istr & USB_ISTR_RESET) {
 8002ee0:	0563      	lsls	r3, r4, #21
 8002ee2:	d500      	bpl.n	8002ee6 <Vector60+0x26>
 8002ee4:	e154      	b.n	8003190 <Vector60+0x2d0>
  if ((istr & USB_ISTR_SUSP) != 0U) {
 8002ee6:	0523      	lsls	r3, r4, #20
 8002ee8:	d500      	bpl.n	8002eec <Vector60+0x2c>
 8002eea:	e135      	b.n	8003158 <Vector60+0x298>
  if ((istr & USB_ISTR_WKUP) != 0U) {
 8002eec:	04e3      	lsls	r3, r4, #19
 8002eee:	d506      	bpl.n	8002efe <Vector60+0x3e>
    uint32_t fnr = usbp->usb->FNR;
 8002ef0:	2384      	movs	r3, #132	@ 0x84
 8002ef2:	4652      	mov	r2, sl
 8002ef4:	58d3      	ldr	r3, [r2, r3]
 8002ef6:	6c9b      	ldr	r3, [r3, #72]	@ 0x48
    if ((fnr & USB_FNR_RXDP) == 0U) {
 8002ef8:	041b      	lsls	r3, r3, #16
 8002efa:	d400      	bmi.n	8002efe <Vector60+0x3e>
 8002efc:	e198      	b.n	8003230 <Vector60+0x370>
  if ((istr & USB_ISTR_SOF) != 0U) {
 8002efe:	05a3      	lsls	r3, r4, #22
 8002f00:	d506      	bpl.n	8002f10 <Vector60+0x50>
    _usb_isr_invoke_sof_cb(usbp);
 8002f02:	4653      	mov	r3, sl
 8002f04:	685b      	ldr	r3, [r3, #4]
 8002f06:	68db      	ldr	r3, [r3, #12]
 8002f08:	2b00      	cmp	r3, #0
 8002f0a:	d001      	beq.n	8002f10 <Vector60+0x50>
 8002f0c:	4650      	mov	r0, sl
 8002f0e:	4798      	blx	r3
  while ((istr & USB_ISTR_CTR) != 0U) {
 8002f10:	2380      	movs	r3, #128	@ 0x80
 8002f12:	021b      	lsls	r3, r3, #8
 8002f14:	469b      	mov	fp, r3
 8002f16:	421c      	tst	r4, r3
 8002f18:	d064      	beq.n	8002fe4 <Vector60+0x124>
  uint32_t chepr = usbp->usb->CHEPR[ep];
 8002f1a:	2384      	movs	r3, #132	@ 0x84
 8002f1c:	4652      	mov	r2, sl
 8002f1e:	58d3      	ldr	r3, [r2, r3]
  if ((istr & USB_ISTR_DIR) == 0U) {
 8002f20:	9507      	str	r5, [sp, #28]
  uint32_t chepr = usbp->usb->CHEPR[ep];
 8002f22:	4699      	mov	r9, r3
  if ((istr & USB_ISTR_DIR) == 0U) {
 8002f24:	4655      	mov	r5, sl
 8002f26:	0023      	movs	r3, r4
 8002f28:	e023      	b.n	8002f72 <Vector60+0xb2>
    CHEPR_CLEAR_VTTX(usbp, ep);
 8002f2a:	4643      	mov	r3, r8
 8002f2c:	4ab7      	ldr	r2, [pc, #732]	@ (800320c <Vector60+0x34c>)
 8002f2e:	681b      	ldr	r3, [r3, #0]
    USBInEndpointState *isp = epcp->in_state;
 8002f30:	6974      	ldr	r4, [r6, #20]
    CHEPR_CLEAR_VTTX(usbp, ep);
 8002f32:	4013      	ands	r3, r2
 8002f34:	465a      	mov	r2, fp
 8002f36:	4313      	orrs	r3, r2
 8002f38:	4642      	mov	r2, r8
    isp->txcnt += isp->txlast;
 8002f3a:	68e7      	ldr	r7, [r4, #12]
    CHEPR_CLEAR_VTTX(usbp, ep);
 8002f3c:	6013      	str	r3, [r2, #0]
    isp->txcnt += isp->txlast;
 8002f3e:	6863      	ldr	r3, [r4, #4]
    n = isp->txsize - isp->txcnt;
 8002f40:	6822      	ldr	r2, [r4, #0]
    isp->txcnt += isp->txlast;
 8002f42:	18fb      	adds	r3, r7, r3
 8002f44:	6063      	str	r3, [r4, #4]
    n = isp->txsize - isp->txcnt;
 8002f46:	1ad1      	subs	r1, r2, r3
    if (n > 0U) {
 8002f48:	429a      	cmp	r2, r3
 8002f4a:	d130      	bne.n	8002fae <Vector60+0xee>
      _usb_isr_invoke_in_cb(usbp, ep);
 8002f4c:	2201      	movs	r2, #1
 8002f4e:	4082      	lsls	r2, r0
 8002f50:	892b      	ldrh	r3, [r5, #8]
 8002f52:	4393      	bics	r3, r2
 8002f54:	812b      	strh	r3, [r5, #8]
 8002f56:	68b3      	ldr	r3, [r6, #8]
 8002f58:	2b00      	cmp	r3, #0
 8002f5a:	d005      	beq.n	8002f68 <Vector60+0xa8>
 8002f5c:	b2c1      	uxtb	r1, r0
      _usb_isr_invoke_setup_cb(usbp, ep);
 8002f5e:	0028      	movs	r0, r5
 8002f60:	4798      	blx	r3
    istr = usbp->usb->ISTR;
 8002f62:	2384      	movs	r3, #132	@ 0x84
 8002f64:	58eb      	ldr	r3, [r5, r3]
 8002f66:	4699      	mov	r9, r3
 8002f68:	464b      	mov	r3, r9
  while ((istr & USB_ISTR_CTR) != 0U) {
 8002f6a:	465a      	mov	r2, fp
    istr = usbp->usb->ISTR;
 8002f6c:	6c5b      	ldr	r3, [r3, #68]	@ 0x44
  while ((istr & USB_ISTR_CTR) != 0U) {
 8002f6e:	4213      	tst	r3, r2
 8002f70:	d037      	beq.n	8002fe2 <Vector60+0x122>
  uint32_t ep = istr & USB_ISTR_IDN_Msk;
 8002f72:	200f      	movs	r0, #15
 8002f74:	4018      	ands	r0, r3
 8002f76:	0084      	lsls	r4, r0, #2
 8002f78:	46a0      	mov	r8, r4
 8002f7a:	44c8      	add	r8, r9
  uint32_t chepr = usbp->usb->CHEPR[ep];
 8002f7c:	4642      	mov	r2, r8
 8002f7e:	6812      	ldr	r2, [r2, #0]
  const USBEndpointConfig *epcp = usbp->epc[ep];
 8002f80:	1c87      	adds	r7, r0, #2
  uint32_t chepr = usbp->usb->CHEPR[ep];
 8002f82:	4694      	mov	ip, r2
  const USBEndpointConfig *epcp = usbp->epc[ep];
 8002f84:	00ba      	lsls	r2, r7, #2
 8002f86:	18aa      	adds	r2, r5, r2
 8002f88:	6856      	ldr	r6, [r2, #4]
  if ((istr & USB_ISTR_DIR) == 0U) {
 8002f8a:	2210      	movs	r2, #16
 8002f8c:	421a      	tst	r2, r3
 8002f8e:	d0cc      	beq.n	8002f2a <Vector60+0x6a>
    CHEPR_CLEAR_VTRX(usbp, ep);
 8002f90:	4643      	mov	r3, r8
 8002f92:	4a9e      	ldr	r2, [pc, #632]	@ (800320c <Vector60+0x34c>)
 8002f94:	681b      	ldr	r3, [r3, #0]
      usb_packet_write_from_buffer(usbp, ep, isp->txbuf, n);
 8002f96:	b2c1      	uxtb	r1, r0
    CHEPR_CLEAR_VTRX(usbp, ep);
 8002f98:	4013      	ands	r3, r2
 8002f9a:	2280      	movs	r2, #128	@ 0x80
 8002f9c:	4313      	orrs	r3, r2
 8002f9e:	4642      	mov	r2, r8
 8002fa0:	6013      	str	r3, [r2, #0]
    if (chepr & USB_EP_SETUP) {
 8002fa2:	4663      	mov	r3, ip
      usb_packet_write_from_buffer(usbp, ep, isp->txbuf, n);
 8002fa4:	9101      	str	r1, [sp, #4]
    if (chepr & USB_EP_SETUP) {
 8002fa6:	051b      	lsls	r3, r3, #20
 8002fa8:	d526      	bpl.n	8002ff8 <Vector60+0x138>
      _usb_isr_invoke_setup_cb(usbp, ep);
 8002faa:	6873      	ldr	r3, [r6, #4]
 8002fac:	e7d7      	b.n	8002f5e <Vector60+0x9e>
      if (n > epcp->in_maxsize)
 8002fae:	8a32      	ldrh	r2, [r6, #16]
 8002fb0:	428a      	cmp	r2, r1
 8002fb2:	d900      	bls.n	8002fb6 <Vector60+0xf6>
 8002fb4:	000a      	movs	r2, r1
      isp->txbuf += isp->txlast;
 8002fb6:	68a1      	ldr	r1, [r4, #8]
      isp->txlast = n;
 8002fb8:	60e2      	str	r2, [r4, #12]
      isp->txbuf += isp->txlast;
 8002fba:	19c9      	adds	r1, r1, r7
 8002fbc:	60a1      	str	r1, [r4, #8]
      usb_packet_write_from_buffer(usbp, ep, isp->txbuf, n);
 8002fbe:	b2c0      	uxtb	r0, r0
 8002fc0:	f7fd fc86 	bl	80008d0 <usb_packet_write_from_buffer.isra.0>
      CHEPR_SET_STATTX(usbp, ep, USB_EP_TX_VALID);
 8002fc4:	4643      	mov	r3, r8
 8002fc6:	4a92      	ldr	r2, [pc, #584]	@ (8003210 <Vector60+0x350>)
 8002fc8:	681b      	ldr	r3, [r3, #0]
 8002fca:	4013      	ands	r3, r2
 8002fcc:	2230      	movs	r2, #48	@ 0x30
 8002fce:	4053      	eors	r3, r2
 8002fd0:	4a90      	ldr	r2, [pc, #576]	@ (8003214 <Vector60+0x354>)
 8002fd2:	4313      	orrs	r3, r2
 8002fd4:	4642      	mov	r2, r8
 8002fd6:	6013      	str	r3, [r2, #0]
    istr = usbp->usb->ISTR;
 8002fd8:	464b      	mov	r3, r9
  while ((istr & USB_ISTR_CTR) != 0U) {
 8002fda:	465a      	mov	r2, fp
    istr = usbp->usb->ISTR;
 8002fdc:	6c5b      	ldr	r3, [r3, #68]	@ 0x44
  while ((istr & USB_ISTR_CTR) != 0U) {
 8002fde:	4213      	tst	r3, r2
 8002fe0:	d1c7      	bne.n	8002f72 <Vector60+0xb2>
 8002fe2:	9d07      	ldr	r5, [sp, #28]
  if (lr != 0xFFFFFFF1U) {
 8002fe4:	350f      	adds	r5, #15
 8002fe6:	d000      	beq.n	8002fea <Vector60+0x12a>
 8002fe8:	e095      	b.n	8003116 <Vector60+0x256>
}
 8002fea:	b009      	add	sp, #36	@ 0x24
 8002fec:	bcf0      	pop	{r4, r5, r6, r7}
 8002fee:	46bb      	mov	fp, r7
 8002ff0:	46b2      	mov	sl, r6
 8002ff2:	46a9      	mov	r9, r5
 8002ff4:	46a0      	mov	r8, r4
 8002ff6:	bdf0      	pop	{r4, r5, r6, r7, pc}
  stm32_usb_pmabufdesc_t *udp = USB_GET_DESCRIPTOR(ep);
 8002ff8:	4987      	ldr	r1, [pc, #540]	@ (8003218 <Vector60+0x358>)
      USBOutEndpointState *osp = epcp->out_state;
 8002ffa:	69b2      	ldr	r2, [r6, #24]
  stm32_usb_pmabufdesc_t *udp = USB_GET_DESCRIPTOR(ep);
 8002ffc:	468c      	mov	ip, r1
      n = usb_packet_read_to_buffer(usbp, ep, osp->rxbuf);
 8002ffe:	6893      	ldr	r3, [r2, #8]
 8003000:	469a      	mov	sl, r3
  stm32_usb_pmabufdesc_t *udp = USB_GET_DESCRIPTOR(ep);
 8003002:	00c3      	lsls	r3, r0, #3
 8003004:	4463      	add	r3, ip
  uint32_t *pmap = USB_GET_RX_BUFFER(udp);
 8003006:	6859      	ldr	r1, [r3, #4]
  n = USB_GET_RX_COUNT0(udp);
 8003008:	685b      	ldr	r3, [r3, #4]
  uint32_t *pmap = USB_GET_RX_BUFFER(udp);
 800300a:	0409      	lsls	r1, r1, #16
 800300c:	0c09      	lsrs	r1, r1, #16
 800300e:	468c      	mov	ip, r1
 8003010:	4981      	ldr	r1, [pc, #516]	@ (8003218 <Vector60+0x358>)
 8003012:	4688      	mov	r8, r1
 8003014:	44c4      	add	ip, r8
 8003016:	4661      	mov	r1, ip
  n = USB_GET_RX_COUNT0(udp);
 8003018:	4698      	mov	r8, r3
 800301a:	019b      	lsls	r3, r3, #6
 800301c:	0d9b      	lsrs	r3, r3, #22
 800301e:	4699      	mov	r9, r3
  i = (int)n;
 8003020:	9302      	str	r3, [sp, #8]
  while (i >= 4) {
 8003022:	23ff      	movs	r3, #255	@ 0xff
  uint32_t *pmap = USB_GET_RX_BUFFER(udp);
 8003024:	9103      	str	r1, [sp, #12]
  while (i >= 4) {
 8003026:	4641      	mov	r1, r8
 8003028:	049b      	lsls	r3, r3, #18
 800302a:	4219      	tst	r1, r3
 800302c:	d039      	beq.n	80030a2 <Vector60+0x1e2>
 800302e:	464b      	mov	r3, r9
 8003030:	3b04      	subs	r3, #4
 8003032:	0019      	movs	r1, r3
 8003034:	9304      	str	r3, [sp, #16]
 8003036:	4653      	mov	r3, sl
 8003038:	3304      	adds	r3, #4
 800303a:	9302      	str	r3, [sp, #8]
 800303c:	2303      	movs	r3, #3
 800303e:	4399      	bics	r1, r3
 8003040:	468c      	mov	ip, r1
 8003042:	9b02      	ldr	r3, [sp, #8]
 8003044:	9903      	ldr	r1, [sp, #12]
 8003046:	449c      	add	ip, r3
 8003048:	4653      	mov	r3, sl
 800304a:	1ac9      	subs	r1, r1, r3
 800304c:	4688      	mov	r8, r1
 800304e:	9901      	ldr	r1, [sp, #4]
 8003050:	9302      	str	r3, [sp, #8]
 8003052:	468a      	mov	sl, r1
 8003054:	4661      	mov	r1, ip
 8003056:	4694      	mov	ip, r2
 8003058:	4642      	mov	r2, r8
 800305a:	46a0      	mov	r8, r4
 800305c:	0014      	movs	r4, r2
 800305e:	9305      	str	r3, [sp, #20]
 8003060:	9006      	str	r0, [sp, #24]
    w = *pmap++;
 8003062:	58e0      	ldr	r0, [r4, r3]
    *buf++ = (uint8_t)(w >> 8);
 8003064:	0a02      	lsrs	r2, r0, #8
    *buf++ = (uint8_t)w;
 8003066:	7018      	strb	r0, [r3, #0]
    *buf++ = (uint8_t)(w >> 8);
 8003068:	705a      	strb	r2, [r3, #1]
    *buf++ = (uint8_t)(w >> 16);
 800306a:	0c02      	lsrs	r2, r0, #16
    *buf++ = (uint8_t)(w >> 24);
 800306c:	0e00      	lsrs	r0, r0, #24
    *buf++ = (uint8_t)(w >> 16);
 800306e:	709a      	strb	r2, [r3, #2]
    *buf++ = (uint8_t)(w >> 24);
 8003070:	70d8      	strb	r0, [r3, #3]
  while (i >= 4) {
 8003072:	3304      	adds	r3, #4
 8003074:	428b      	cmp	r3, r1
 8003076:	d1f4      	bne.n	8003062 <Vector60+0x1a2>
 8003078:	4653      	mov	r3, sl
 800307a:	9904      	ldr	r1, [sp, #16]
 800307c:	9301      	str	r3, [sp, #4]
 800307e:	9b05      	ldr	r3, [sp, #20]
 8003080:	4644      	mov	r4, r8
 8003082:	469a      	mov	sl, r3
 8003084:	088b      	lsrs	r3, r1, #2
 8003086:	9302      	str	r3, [sp, #8]
 8003088:	3301      	adds	r3, #1
 800308a:	009b      	lsls	r3, r3, #2
 800308c:	4698      	mov	r8, r3
 800308e:	9b03      	ldr	r3, [sp, #12]
 8003090:	4662      	mov	r2, ip
 8003092:	4443      	add	r3, r8
 8003094:	469c      	mov	ip, r3
 8003096:	9b02      	ldr	r3, [sp, #8]
 8003098:	9806      	ldr	r0, [sp, #24]
 800309a:	009b      	lsls	r3, r3, #2
 800309c:	1acb      	subs	r3, r1, r3
 800309e:	44c2      	add	sl, r8
 80030a0:	9302      	str	r3, [sp, #8]
  if (i == 3) {
 80030a2:	9b02      	ldr	r3, [sp, #8]
 80030a4:	2b03      	cmp	r3, #3
 80030a6:	d049      	beq.n	800313c <Vector60+0x27c>
  else if (i == 2) {
 80030a8:	9b02      	ldr	r3, [sp, #8]
 80030aa:	2b02      	cmp	r3, #2
 80030ac:	d100      	bne.n	80030b0 <Vector60+0x1f0>
 80030ae:	e09c      	b.n	80031ea <Vector60+0x32a>
  else if (i == 1) {
 80030b0:	9b02      	ldr	r3, [sp, #8]
 80030b2:	2b01      	cmp	r3, #1
 80030b4:	d100      	bne.n	80030b8 <Vector60+0x1f8>
 80030b6:	e0a2      	b.n	80031fe <Vector60+0x33e>
      osp->rxsize -= n;
 80030b8:	4649      	mov	r1, r9
      osp->rxbuf += n;
 80030ba:	6893      	ldr	r3, [r2, #8]
 80030bc:	444b      	add	r3, r9
 80030be:	6093      	str	r3, [r2, #8]
      osp->rxcnt  += n;
 80030c0:	6853      	ldr	r3, [r2, #4]
 80030c2:	444b      	add	r3, r9
 80030c4:	6053      	str	r3, [r2, #4]
      osp->rxsize -= n;
 80030c6:	6813      	ldr	r3, [r2, #0]
 80030c8:	1a5b      	subs	r3, r3, r1
 80030ca:	6013      	str	r3, [r2, #0]
      osp->rxpkts -= 1U;
 80030cc:	8993      	ldrh	r3, [r2, #12]
 80030ce:	3b01      	subs	r3, #1
 80030d0:	b29b      	uxth	r3, r3
 80030d2:	8193      	strh	r3, [r2, #12]
      if ((n < epcp->out_maxsize) || (osp->rxpkts == 0)) {
 80030d4:	8a72      	ldrh	r2, [r6, #18]
 80030d6:	454a      	cmp	r2, r9
 80030d8:	d801      	bhi.n	80030de <Vector60+0x21e>
 80030da:	2b00      	cmp	r3, #0
 80030dc:	d10d      	bne.n	80030fa <Vector60+0x23a>
        _usb_isr_invoke_out_cb(usbp, ep);
 80030de:	2201      	movs	r2, #1
 80030e0:	4082      	lsls	r2, r0
 80030e2:	896b      	ldrh	r3, [r5, #10]
 80030e4:	00bf      	lsls	r7, r7, #2
 80030e6:	4393      	bics	r3, r2
 80030e8:	19ef      	adds	r7, r5, r7
 80030ea:	816b      	strh	r3, [r5, #10]
 80030ec:	687b      	ldr	r3, [r7, #4]
 80030ee:	68db      	ldr	r3, [r3, #12]
 80030f0:	2b00      	cmp	r3, #0
 80030f2:	d100      	bne.n	80030f6 <Vector60+0x236>
 80030f4:	e735      	b.n	8002f62 <Vector60+0xa2>
 80030f6:	9901      	ldr	r1, [sp, #4]
 80030f8:	e731      	b.n	8002f5e <Vector60+0x9e>
        CHEPR_SET_STATRX(usbp, ep, USB_EP_RX_STRX);
 80030fa:	2384      	movs	r3, #132	@ 0x84
 80030fc:	58eb      	ldr	r3, [r5, r3]
 80030fe:	4a47      	ldr	r2, [pc, #284]	@ (800321c <Vector60+0x35c>)
 8003100:	4699      	mov	r9, r3
 8003102:	444c      	add	r4, r9
 8003104:	6823      	ldr	r3, [r4, #0]
 8003106:	4013      	ands	r3, r2
 8003108:	22c0      	movs	r2, #192	@ 0xc0
 800310a:	0192      	lsls	r2, r2, #6
 800310c:	405a      	eors	r2, r3
 800310e:	4b41      	ldr	r3, [pc, #260]	@ (8003214 <Vector60+0x354>)
 8003110:	4313      	orrs	r3, r2
 8003112:	6023      	str	r3, [r4, #0]
 8003114:	e728      	b.n	8002f68 <Vector60+0xa8>
  __ASM volatile ("cpsid i" : : : "memory");
 8003116:	b672      	cpsid	i
  __ASM volatile ("MRS %0, psp"  : "=r" (result) );
 8003118:	f3ef 8309 	mrs	r3, PSP
    ectxp--;
 800311c:	3b20      	subs	r3, #32
  __ASM volatile ("MSR psp, %0" : : "r" (topOfProcStack) : );
 800311e:	f383 8809 	msr	PSP, r3
    ectxp->xpsr = 0x01000000U;
 8003122:	2280      	movs	r2, #128	@ 0x80
 8003124:	0452      	lsls	r2, r2, #17
 8003126:	61da      	str	r2, [r3, #28]
  tprio_t p1 = firstprio(&oip->rlist.pqueue);
 8003128:	4a3d      	ldr	r2, [pc, #244]	@ (8003220 <Vector60+0x360>)
 800312a:	6811      	ldr	r1, [r2, #0]
  tprio_t p2 = tp->hdr.pqueue.prio;
 800312c:	68d2      	ldr	r2, [r2, #12]
    if (chSchIsPreemptionRequired()) {
 800312e:	6889      	ldr	r1, [r1, #8]
 8003130:	6892      	ldr	r2, [r2, #8]
 8003132:	4291      	cmp	r1, r2
 8003134:	d960      	bls.n	80031f8 <Vector60+0x338>
      ectxp->pc = (uint32_t)__port_switch_from_isr;
 8003136:	4a3b      	ldr	r2, [pc, #236]	@ (8003224 <Vector60+0x364>)
 8003138:	619a      	str	r2, [r3, #24]
 800313a:	e756      	b.n	8002fea <Vector60+0x12a>
    w = *pmap;
 800313c:	4663      	mov	r3, ip
    *(buf + 0) = (uint8_t)w;
 800313e:	4651      	mov	r1, sl
    w = *pmap;
 8003140:	681b      	ldr	r3, [r3, #0]
    *(buf + 0) = (uint8_t)w;
 8003142:	700b      	strb	r3, [r1, #0]
    *(buf + 1) = (uint8_t)(w >> 8);
 8003144:	0a19      	lsrs	r1, r3, #8
 8003146:	468c      	mov	ip, r1
    w = *pmap;
 8003148:	4698      	mov	r8, r3
    *(buf + 1) = (uint8_t)(w >> 8);
 800314a:	4651      	mov	r1, sl
 800314c:	4663      	mov	r3, ip
 800314e:	704b      	strb	r3, [r1, #1]
    *(buf + 2) = (uint8_t)(w >> 16);
 8003150:	4643      	mov	r3, r8
 8003152:	0c1b      	lsrs	r3, r3, #16
 8003154:	708b      	strb	r3, [r1, #2]
 8003156:	e7af      	b.n	80030b8 <Vector60+0x1f8>
    usbp->usb->CNTR |= USB_CNTR_SUSPEN;
 8003158:	2384      	movs	r3, #132	@ 0x84
 800315a:	4652      	mov	r2, sl
 800315c:	2108      	movs	r1, #8
 800315e:	58d2      	ldr	r2, [r2, r3]
 8003160:	6c13      	ldr	r3, [r2, #64]	@ 0x40
 8003162:	430b      	orrs	r3, r1
 8003164:	6413      	str	r3, [r2, #64]	@ 0x40
  if (usbp->state != USB_SUSPENDED) {
 8003166:	4653      	mov	r3, sl
 8003168:	781b      	ldrb	r3, [r3, #0]
 800316a:	2b05      	cmp	r3, #5
 800316c:	d100      	bne.n	8003170 <Vector60+0x2b0>
 800316e:	e6bd      	b.n	8002eec <Vector60+0x2c>
    usbp->saved_state = usbp->state;
 8003170:	4651      	mov	r1, sl
 8003172:	2280      	movs	r2, #128	@ 0x80
 8003174:	548b      	strb	r3, [r1, r2]
    usbp->state       = USB_SUSPENDED;
 8003176:	2305      	movs	r3, #5
 8003178:	700b      	strb	r3, [r1, #0]
    _usb_isr_invoke_event_cb(usbp, USB_EVENT_SUSPEND);
 800317a:	684b      	ldr	r3, [r1, #4]
 800317c:	681b      	ldr	r3, [r3, #0]
 800317e:	2b00      	cmp	r3, #0
 8003180:	d002      	beq.n	8003188 <Vector60+0x2c8>
 8003182:	2104      	movs	r1, #4
 8003184:	4650      	mov	r0, sl
 8003186:	4798      	blx	r3
    usbp->transmitting  = 0;
 8003188:	2300      	movs	r3, #0
 800318a:	4652      	mov	r2, sl
 800318c:	6093      	str	r3, [r2, #8]
 800318e:	e6ad      	b.n	8002eec <Vector60+0x2c>
  usbp->status        = 0;
 8003190:	2700      	movs	r7, #0
  usbp->state         = USB_READY;
 8003192:	2302      	movs	r3, #2
    usbp->epc[i] = NULL;
 8003194:	4650      	mov	r0, sl
  usbp->state         = USB_READY;
 8003196:	7013      	strb	r3, [r2, #0]
  usbp->status        = 0;
 8003198:	67d7      	str	r7, [r2, #124]	@ 0x7c
  usbp->transmitting  = 0;
 800319a:	6097      	str	r7, [r2, #8]
    usbp->epc[i] = NULL;
 800319c:	2100      	movs	r1, #0
 800319e:	2220      	movs	r2, #32
 80031a0:	300c      	adds	r0, #12
 80031a2:	f7fd f81b 	bl	80001dc <memset>
  usbp->ep0state = USB_EP0_STP_WAITING;
 80031a6:	4652      	mov	r2, sl
 80031a8:	2364      	movs	r3, #100	@ 0x64
 80031aa:	54d7      	strb	r7, [r2, r3]
  usbp->usb->ISTR   = 0U;
 80031ac:	6477      	str	r7, [r6, #68]	@ 0x44
  if (usbp->config->sof_cb != NULL)
 80031ae:	6857      	ldr	r7, [r2, #4]
  usbp->usb->DADDR  = USB_DADDR_EF;
 80031b0:	331c      	adds	r3, #28
 80031b2:	64f3      	str	r3, [r6, #76]	@ 0x4c
  if (usbp->config->sof_cb != NULL)
 80031b4:	68fb      	ldr	r3, [r7, #12]
  usbp->pmnext = 64U;
 80031b6:	4651      	mov	r1, sl
  cntr              = /* USB_CNTR_ESOFM | */ USB_CNTR_RESETM  | USB_CNTR_SUSPM |
 80031b8:	1e5a      	subs	r2, r3, #1
 80031ba:	4193      	sbcs	r3, r2
 80031bc:	22bc      	movs	r2, #188	@ 0xbc
 80031be:	0212      	lsls	r2, r2, #8
 80031c0:	4694      	mov	ip, r2
 80031c2:	025b      	lsls	r3, r3, #9
 80031c4:	4463      	add	r3, ip
  usbp->usb->CNTR = cntr;
 80031c6:	6433      	str	r3, [r6, #64]	@ 0x40
  usbp->pmnext = 64U;
 80031c8:	2240      	movs	r2, #64	@ 0x40
 80031ca:	2388      	movs	r3, #136	@ 0x88
 80031cc:	50ca      	str	r2, [r1, r3]
  usbp->epc[0] = &ep0config;
 80031ce:	4b16      	ldr	r3, [pc, #88]	@ (8003228 <Vector60+0x368>)
  usb_lld_init_endpoint(usbp, 0U);
 80031d0:	4650      	mov	r0, sl
  usbp->epc[0] = &ep0config;
 80031d2:	60cb      	str	r3, [r1, #12]
  usb_lld_init_endpoint(usbp, 0U);
 80031d4:	2100      	movs	r1, #0
 80031d6:	f7fd fa2b 	bl	8000630 <usb_lld_init_endpoint>
  _usb_isr_invoke_event_cb(usbp, USB_EVENT_RESET);
 80031da:	683b      	ldr	r3, [r7, #0]
 80031dc:	2b00      	cmp	r3, #0
 80031de:	d100      	bne.n	80031e2 <Vector60+0x322>
 80031e0:	e681      	b.n	8002ee6 <Vector60+0x26>
 80031e2:	2100      	movs	r1, #0
 80031e4:	4650      	mov	r0, sl
 80031e6:	4798      	blx	r3
 80031e8:	e67d      	b.n	8002ee6 <Vector60+0x26>
    w = *pmap;
 80031ea:	4663      	mov	r3, ip
    *(buf + 0) = (uint8_t)w;
 80031ec:	4651      	mov	r1, sl
    w = *pmap;
 80031ee:	681b      	ldr	r3, [r3, #0]
    *(buf + 0) = (uint8_t)w;
 80031f0:	700b      	strb	r3, [r1, #0]
    *(buf + 1) = (uint8_t)(w >> 8);
 80031f2:	0a1b      	lsrs	r3, r3, #8
 80031f4:	704b      	strb	r3, [r1, #1]
 80031f6:	e75f      	b.n	80030b8 <Vector60+0x1f8>
      ectxp->pc = (uint32_t)__port_exit_from_isr;
 80031f8:	4a0c      	ldr	r2, [pc, #48]	@ (800322c <Vector60+0x36c>)
 80031fa:	619a      	str	r2, [r3, #24]
}
 80031fc:	e6f5      	b.n	8002fea <Vector60+0x12a>
    *(buf + 0) = (uint8_t)w;
 80031fe:	4663      	mov	r3, ip
 8003200:	4651      	mov	r1, sl
 8003202:	681b      	ldr	r3, [r3, #0]
 8003204:	700b      	strb	r3, [r1, #0]
 8003206:	e757      	b.n	80030b8 <Vector60+0x1f8>
 8003208:	20000e74 	.word	0x20000e74
 800320c:	ffff070f 	.word	0xffff070f
 8003210:	ffff87bf 	.word	0xffff87bf
 8003214:	00008080 	.word	0x00008080
 8003218:	40009800 	.word	0x40009800
 800321c:	ffffb78f 	.word	0xffffb78f
 8003220:	200010b0 	.word	0x200010b0
 8003224:	080001c7 	.word	0x080001c7
 8003228:	08004090 	.word	0x08004090
 800322c:	080001ca 	.word	0x080001ca
  if (usbp->state == USB_SUSPENDED) {
 8003230:	7813      	ldrb	r3, [r2, #0]
 8003232:	2b05      	cmp	r3, #5
 8003234:	d000      	beq.n	8003238 <Vector60+0x378>
 8003236:	e662      	b.n	8002efe <Vector60+0x3e>
    usbp->state = usbp->saved_state;
 8003238:	337b      	adds	r3, #123	@ 0x7b
 800323a:	5cd3      	ldrb	r3, [r2, r3]
 800323c:	7013      	strb	r3, [r2, #0]
    _usb_isr_invoke_event_cb(usbp, USB_EVENT_WAKEUP);
 800323e:	6853      	ldr	r3, [r2, #4]
 8003240:	681b      	ldr	r3, [r3, #0]
 8003242:	2b00      	cmp	r3, #0
 8003244:	d100      	bne.n	8003248 <Vector60+0x388>
 8003246:	e65a      	b.n	8002efe <Vector60+0x3e>
 8003248:	2105      	movs	r1, #5
 800324a:	4650      	mov	r0, sl
 800324c:	4798      	blx	r3
 800324e:	e656      	b.n	8002efe <Vector60+0x3e>

08003250 <__early_init>:

static void stm32_gpio_init(void) {

  /* Enabling GPIO-related clocks, the mask comes from the
     registry header file.*/
  rccResetIOP(STM32_GPIO_EN_MASK);
 8003250:	222f      	movs	r2, #47	@ 0x2f
 8003252:	4b61      	ldr	r3, [pc, #388]	@ (80033d8 <__early_init+0x188>)
/**
 * @brief   Early initialization code.
 * @details GPIO ports and system clocks are initialized before everything
 *          else.
 */
void __early_init(void) {
 8003254:	b570      	push	{r4, r5, r6, lr}
  rccResetIOP(STM32_GPIO_EN_MASK);
 8003256:	6a59      	ldr	r1, [r3, #36]	@ 0x24
  gpiop->OSPEEDR = config->ospeedr;
 8003258:	2051      	movs	r0, #81	@ 0x51
  rccResetIOP(STM32_GPIO_EN_MASK);
 800325a:	4311      	orrs	r1, r2
 800325c:	6259      	str	r1, [r3, #36]	@ 0x24
 800325e:	6a59      	ldr	r1, [r3, #36]	@ 0x24
  gpiop->OSPEEDR = config->ospeedr;
 8003260:	4240      	negs	r0, r0
  rccResetIOP(STM32_GPIO_EN_MASK);
 8003262:	4391      	bics	r1, r2
 8003264:	6259      	str	r1, [r3, #36]	@ 0x24
 8003266:	6a59      	ldr	r1, [r3, #36]	@ 0x24
  rccEnableIOP(STM32_GPIO_EN_MASK, true);
 8003268:	6b59      	ldr	r1, [r3, #52]	@ 0x34
  gpiop->ODR     = config->odr;
 800326a:	4c5c      	ldr	r4, [pc, #368]	@ (80033dc <__early_init+0x18c>)
  rccEnableIOP(STM32_GPIO_EN_MASK, true);
 800326c:	4311      	orrs	r1, r2
 800326e:	6359      	str	r1, [r3, #52]	@ 0x34
 8003270:	6c59      	ldr	r1, [r3, #68]	@ 0x44
  gpiop->PUPDR   = config->pupdr;
 8003272:	4d5b      	ldr	r5, [pc, #364]	@ (80033e0 <__early_init+0x190>)
  rccEnableIOP(STM32_GPIO_EN_MASK, true);
 8003274:	430a      	orrs	r2, r1
 8003276:	645a      	str	r2, [r3, #68]	@ 0x44
  gpiop->OTYPER  = config->otyper;
 8003278:	21a0      	movs	r1, #160	@ 0xa0
  rccEnableIOP(STM32_GPIO_EN_MASK, true);
 800327a:	6c5a      	ldr	r2, [r3, #68]	@ 0x44
  gpiop->OTYPER  = config->otyper;
 800327c:	2200      	movs	r2, #0
 800327e:	05c9      	lsls	r1, r1, #23
 8003280:	604a      	str	r2, [r1, #4]
  gpiop->OSPEEDR = config->ospeedr;
 8003282:	6088      	str	r0, [r1, #8]
  gpiop->PUPDR   = config->pupdr;
 8003284:	4857      	ldr	r0, [pc, #348]	@ (80033e4 <__early_init+0x194>)
 8003286:	4e58      	ldr	r6, [pc, #352]	@ (80033e8 <__early_init+0x198>)
 8003288:	60c8      	str	r0, [r1, #12]
  gpiop->ODR     = config->odr;
 800328a:	4858      	ldr	r0, [pc, #352]	@ (80033ec <__early_init+0x19c>)
 800328c:	6148      	str	r0, [r1, #20]
  gpiop->AFRL    = config->afrl;
 800328e:	2088      	movs	r0, #136	@ 0x88
 8003290:	0140      	lsls	r0, r0, #5
 8003292:	6208      	str	r0, [r1, #32]
  gpiop->MODER   = config->moder;
 8003294:	4856      	ldr	r0, [pc, #344]	@ (80033f0 <__early_init+0x1a0>)
  gpiop->AFRH    = config->afrh;
 8003296:	624a      	str	r2, [r1, #36]	@ 0x24
  gpiop->MODER   = config->moder;
 8003298:	6008      	str	r0, [r1, #0]
  gpiop->OSPEEDR = config->ospeedr;
 800329a:	2101      	movs	r1, #1
  gpiop->OTYPER  = config->otyper;
 800329c:	4855      	ldr	r0, [pc, #340]	@ (80033f4 <__early_init+0x1a4>)
  gpiop->OSPEEDR = config->ospeedr;
 800329e:	4249      	negs	r1, r1
  gpiop->OTYPER  = config->otyper;
 80032a0:	6042      	str	r2, [r0, #4]
  gpiop->OSPEEDR = config->ospeedr;
 80032a2:	6081      	str	r1, [r0, #8]
  gpiop->PUPDR   = config->pupdr;
 80032a4:	60c5      	str	r5, [r0, #12]
  gpiop->ODR     = config->odr;
 80032a6:	6144      	str	r4, [r0, #20]
  gpiop->AFRL    = config->afrl;
 80032a8:	6202      	str	r2, [r0, #32]
  gpiop->AFRH    = config->afrh;
 80032aa:	6242      	str	r2, [r0, #36]	@ 0x24
  gpiop->MODER   = config->moder;
 80032ac:	6002      	str	r2, [r0, #0]
  gpiop->OTYPER  = config->otyper;
 80032ae:	4852      	ldr	r0, [pc, #328]	@ (80033f8 <__early_init+0x1a8>)
 80032b0:	6042      	str	r2, [r0, #4]
  gpiop->OSPEEDR = config->ospeedr;
 80032b2:	6081      	str	r1, [r0, #8]
  gpiop->PUPDR   = config->pupdr;
 80032b4:	60c6      	str	r6, [r0, #12]
  gpiop->ODR     = config->odr;
 80032b6:	6144      	str	r4, [r0, #20]
  gpiop->AFRL    = config->afrl;
 80032b8:	6202      	str	r2, [r0, #32]
  gpiop->AFRH    = config->afrh;
 80032ba:	6242      	str	r2, [r0, #36]	@ 0x24
  gpiop->MODER   = config->moder;
 80032bc:	6002      	str	r2, [r0, #0]
  gpiop->OTYPER  = config->otyper;
 80032be:	484f      	ldr	r0, [pc, #316]	@ (80033fc <__early_init+0x1ac>)
 80032c0:	6042      	str	r2, [r0, #4]
  gpiop->OSPEEDR = config->ospeedr;
 80032c2:	6081      	str	r1, [r0, #8]
  gpiop->PUPDR   = config->pupdr;
 80032c4:	60c5      	str	r5, [r0, #12]
  gpiop->ODR     = config->odr;
 80032c6:	6144      	str	r4, [r0, #20]
  gpiop->PUPDR   = config->pupdr;
 80032c8:	4d4d      	ldr	r5, [pc, #308]	@ (8003400 <__early_init+0x1b0>)
  gpiop->AFRL    = config->afrl;
 80032ca:	6202      	str	r2, [r0, #32]
  gpiop->AFRH    = config->afrh;
 80032cc:	6242      	str	r2, [r0, #36]	@ 0x24
  gpiop->MODER   = config->moder;
 80032ce:	6002      	str	r2, [r0, #0]
  gpiop->OTYPER  = config->otyper;
 80032d0:	484c      	ldr	r0, [pc, #304]	@ (8003404 <__early_init+0x1b4>)
 80032d2:	6042      	str	r2, [r0, #4]
  gpiop->OSPEEDR = config->ospeedr;
 80032d4:	6081      	str	r1, [r0, #8]
  gpiop->PUPDR   = config->pupdr;
 80032d6:	60c5      	str	r5, [r0, #12]
  gpiop->ODR     = config->odr;
 80032d8:	6144      	str	r4, [r0, #20]
  gpiop->AFRL    = config->afrl;
 80032da:	6202      	str	r2, [r0, #32]
  gpiop->AFRH    = config->afrh;
 80032dc:	6242      	str	r2, [r0, #36]	@ 0x24
  gpiop->MODER   = config->moder;
 80032de:	6002      	str	r2, [r0, #0]
 */
void stm32_clock_init(void) {

#if !STM32_NO_INIT
  /* Reset of all peripherals.*/
  rccResetAHB(~0);
 80032e0:	6a98      	ldr	r0, [r3, #40]	@ 0x28
 80032e2:	6299      	str	r1, [r3, #40]	@ 0x28
 80032e4:	6a98      	ldr	r0, [r3, #40]	@ 0x28
 80032e6:	629a      	str	r2, [r3, #40]	@ 0x28
 80032e8:	6a98      	ldr	r0, [r3, #40]	@ 0x28
  rccResetAPBR1(~0);
 80032ea:	6ad8      	ldr	r0, [r3, #44]	@ 0x2c
 80032ec:	62d9      	str	r1, [r3, #44]	@ 0x2c
 80032ee:	6ad8      	ldr	r0, [r3, #44]	@ 0x2c
 80032f0:	62da      	str	r2, [r3, #44]	@ 0x2c
 80032f2:	6ad8      	ldr	r0, [r3, #44]	@ 0x2c
  rccResetAPBR2(~0);
 80032f4:	6b18      	ldr	r0, [r3, #48]	@ 0x30

  /* SYSCFG clock enabled here because it is a multi-functional unit shared
     among multiple drivers.*/
  rccEnableAPBR2(RCC_APBENR2_SYSCFGEN, false);
 80032f6:	2001      	movs	r0, #1
  rccResetAPBR2(~0);
 80032f8:	6319      	str	r1, [r3, #48]	@ 0x30
 80032fa:	6b19      	ldr	r1, [r3, #48]	@ 0x30
 80032fc:	631a      	str	r2, [r3, #48]	@ 0x30
 80032fe:	6b19      	ldr	r1, [r3, #48]	@ 0x30
  rccEnableAPBR2(RCC_APBENR2_SYSCFGEN, false);
 8003300:	6c19      	ldr	r1, [r3, #64]	@ 0x40
 8003302:	4301      	orrs	r1, r0
 8003304:	6419      	str	r1, [r3, #64]	@ 0x40
 8003306:	6d19      	ldr	r1, [r3, #80]	@ 0x50
 8003308:	4381      	bics	r1, r0
 800330a:	6519      	str	r1, [r3, #80]	@ 0x50
 800330c:	6d19      	ldr	r1, [r3, #80]	@ 0x50

#if defined(HAL_USE_RTC) && defined(RCC_APBENR1_RTCAPBEN)
  rccEnableAPBR1(RCC_APBENR1_RTCAPBEN, false);
 800330e:	2180      	movs	r1, #128	@ 0x80
 8003310:	6bd8      	ldr	r0, [r3, #60]	@ 0x3c
 8003312:	00c9      	lsls	r1, r1, #3
 8003314:	4301      	orrs	r1, r0
 8003316:	63d9      	str	r1, [r3, #60]	@ 0x3c
 8003318:	6cd9      	ldr	r1, [r3, #76]	@ 0x4c
 800331a:	483b      	ldr	r0, [pc, #236]	@ (8003408 <__early_init+0x1b8>)
 800331c:	4001      	ands	r1, r0
 800331e:	64d9      	str	r1, [r3, #76]	@ 0x4c
 8003320:	6cd9      	ldr	r1, [r3, #76]	@ 0x4c
  rccEnablePWRInterface(false);
 8003322:	2180      	movs	r1, #128	@ 0x80
 8003324:	6bd8      	ldr	r0, [r3, #60]	@ 0x3c
 8003326:	0549      	lsls	r1, r1, #21
 8003328:	4301      	orrs	r1, r0
 800332a:	63d9      	str	r1, [r3, #60]	@ 0x3c
 800332c:	6cd9      	ldr	r1, [r3, #76]	@ 0x4c
 800332e:	4837      	ldr	r0, [pc, #220]	@ (800340c <__early_init+0x1bc>)
 8003330:	4001      	ands	r1, r0
  PWR->CR3   = STM32_PWR_CR3;
 8003332:	2080      	movs	r0, #128	@ 0x80
  rccEnablePWRInterface(false);
 8003334:	64d9      	str	r1, [r3, #76]	@ 0x4c
 8003336:	6cd9      	ldr	r1, [r3, #76]	@ 0x4c
  PWR->CR3   = STM32_PWR_CR3;
 8003338:	4935      	ldr	r1, [pc, #212]	@ (8003410 <__early_init+0x1c0>)
 800333a:	0200      	lsls	r0, r0, #8
 800333c:	6088      	str	r0, [r1, #8]
 *          of the whole BKP domain.
 */
__STATIC_INLINE void bd_reset(void) {

  /* Reset BKP domain if different clock source selected.*/
  if ((RCC->CSR1 & STM32_RTCSEL_MASK) != STM32_RTCSEL) {
 800333e:	20c0      	movs	r0, #192	@ 0xc0
  PWR->CR4   = STM32_PWR_CR4;
 8003340:	60ca      	str	r2, [r1, #12]
  PWR->PUCRA = STM32_PWR_PUCRA;
 8003342:	620a      	str	r2, [r1, #32]
  PWR->PDCRA = STM32_PWR_PDCRA;
 8003344:	624a      	str	r2, [r1, #36]	@ 0x24
  PWR->PUCRB = STM32_PWR_PUCRB;
 8003346:	628a      	str	r2, [r1, #40]	@ 0x28
  PWR->PDCRB = STM32_PWR_PDCRB;
 8003348:	62ca      	str	r2, [r1, #44]	@ 0x2c
  PWR->PUCRC = STM32_PWR_PUCRC;
 800334a:	630a      	str	r2, [r1, #48]	@ 0x30
  PWR->PDCRC = STM32_PWR_PDCRC;
 800334c:	634a      	str	r2, [r1, #52]	@ 0x34
  PWR->PUCRD = STM32_PWR_PUCRD;
 800334e:	638a      	str	r2, [r1, #56]	@ 0x38
  PWR->PDCRD = STM32_PWR_PDCRD;
 8003350:	63ca      	str	r2, [r1, #60]	@ 0x3c
  PWR->PUCRF = STM32_PWR_PUCRF;
 8003352:	648a      	str	r2, [r1, #72]	@ 0x48
  PWR->PDCRF = STM32_PWR_PDCRF;
 8003354:	64ca      	str	r2, [r1, #76]	@ 0x4c
 8003356:	6dd9      	ldr	r1, [r3, #92]	@ 0x5c
 8003358:	0080      	lsls	r0, r0, #2
 800335a:	4001      	ands	r1, r0
 800335c:	2080      	movs	r0, #128	@ 0x80
 800335e:	0040      	lsls	r0, r0, #1
 8003360:	4281      	cmp	r1, r0
 8003362:	d003      	beq.n	800336c <__early_init+0x11c>
    /* Backup domain reset.*/
    RCC->CSR1 = RCC_CSR1_RTCRST;
 8003364:	2180      	movs	r1, #128	@ 0x80
 8003366:	0249      	lsls	r1, r1, #9
 8003368:	65d9      	str	r1, [r3, #92]	@ 0x5c
    RCC->CSR1 = 0U;
 800336a:	65da      	str	r2, [r3, #92]	@ 0x5c
#if defined(STM32_LSE_BYPASS)
  /* LSE Bypass.*/
  RCC->CSR1 |= STM32_LSEDRV | RCC_CSR1_LSEON | RCC_CSR1_LSESYSEN | RCC_CSR1_LSEBYP;
#else
  /* No LSE Bypass.*/
  RCC->CSR1 |= STM32_LSEDRV | RCC_CSR1_LSEON;
 800336c:	4a1a      	ldr	r2, [pc, #104]	@ (80033d8 <__early_init+0x188>)
 800336e:	4b29      	ldr	r3, [pc, #164]	@ (8003414 <__early_init+0x1c4>)
 8003370:	6dd1      	ldr	r1, [r2, #92]	@ 0x5c
 8003372:	430b      	orrs	r3, r1
  while ((RCC->CSR1 & RCC_CSR1_LSERDY) != RCC_CSR1_LSERDY) {
 8003374:	2102      	movs	r1, #2
  RCC->CSR1 |= STM32_LSEDRV | RCC_CSR1_LSEON;
 8003376:	65d3      	str	r3, [r2, #92]	@ 0x5c
  while ((RCC->CSR1 & RCC_CSR1_LSERDY) != RCC_CSR1_LSERDY) {
 8003378:	6dd3      	ldr	r3, [r2, #92]	@ 0x5c
 800337a:	4219      	tst	r1, r3
 800337c:	d0fc      	beq.n	8003378 <__early_init+0x128>

__STATIC_INLINE void lsi_init(void) {

#if STM32_LSI_ENABLED
  /* LSI activation.*/
  RCC->CSR2 |= RCC_CSR2_LSION;
 800337e:	2101      	movs	r1, #1
 8003380:	6e13      	ldr	r3, [r2, #96]	@ 0x60
 8003382:	430b      	orrs	r3, r1
 8003384:	6613      	str	r3, [r2, #96]	@ 0x60
  while ((RCC->CSR2 & RCC_CSR2_LSIRDY) == 0U) {
 8003386:	4a14      	ldr	r2, [pc, #80]	@ (80033d8 <__early_init+0x188>)
 8003388:	3101      	adds	r1, #1
 800338a:	6e13      	ldr	r3, [r2, #96]	@ 0x60
 800338c:	4219      	tst	r1, r3
 800338e:	d0fc      	beq.n	800338a <__early_init+0x13a>
/*===========================================================================*/

#if STM32_RCC_HAS_HSIUSB48 == TRUE
__STATIC_INLINE void hsiusb48_enable(void) {

  RCC->CR |= RCC_CR_HSIUSB48ON;
 8003390:	2380      	movs	r3, #128	@ 0x80
 8003392:	6811      	ldr	r1, [r2, #0]
 8003394:	03db      	lsls	r3, r3, #15
 8003396:	430b      	orrs	r3, r1
  while ((RCC->CR & RCC_CR_HSIUSB48RDY) == 0U) {
 8003398:	2180      	movs	r1, #128	@ 0x80
  RCC->CR |= RCC_CR_HSIUSB48ON;
 800339a:	6013      	str	r3, [r2, #0]
  while ((RCC->CR & RCC_CR_HSIUSB48RDY) == 0U) {
 800339c:	4a0e      	ldr	r2, [pc, #56]	@ (80033d8 <__early_init+0x188>)
 800339e:	0409      	lsls	r1, r1, #16
 80033a0:	6813      	ldr	r3, [r2, #0]
 80033a2:	420b      	tst	r3, r1
 80033a4:	d0fc      	beq.n	80033a0 <__early_init+0x150>
  bdcr = RCC->CSR1;
 80033a6:	6dd1      	ldr	r1, [r2, #92]	@ 0x5c
  bdcr &= ~(STM32_RTCSEL_MASK | STM32_LSCOSEL_MASK);
 80033a8:	4b1b      	ldr	r3, [pc, #108]	@ (8003418 <__early_init+0x1c8>)
            STM32_HSIDIV | STM32_HSIKER;
 80033aa:	481c      	ldr	r0, [pc, #112]	@ (800341c <__early_init+0x1cc>)
 80033ac:	4019      	ands	r1, r3
  bdcr |= STM32_RTCSEL | STM32_LSCOSEL;
 80033ae:	2380      	movs	r3, #128	@ 0x80
 80033b0:	005b      	lsls	r3, r3, #1
 80033b2:	430b      	orrs	r3, r1
  RCC->CSR1 = bdcr;
 80033b4:	65d3      	str	r3, [r2, #92]	@ 0x5c
  RCC->CFGR = STM32_MCOPRE  | STM32_MCOSEL  |
 80033b6:	2300      	movs	r3, #0
 80033b8:	6093      	str	r3, [r2, #8]
  RCC->CR = (RCC->CR & ~(STM32_HSIDIV_MASK | STM32_HSIKER_MASK)) |
 80033ba:	6811      	ldr	r1, [r2, #0]
            STM32_HSIDIV | STM32_HSIKER;
 80033bc:	4001      	ands	r1, r0
  while ((FLASH->ACR & FLASH_ACR_LATENCY_Msk) != (acr & FLASH_ACR_LATENCY_Msk)) {
 80033be:	2007      	movs	r0, #7
  RCC->CR = (RCC->CR & ~(STM32_HSIDIV_MASK | STM32_HSIKER_MASK)) |
 80033c0:	6011      	str	r1, [r2, #0]
  RCC->CCIPR =  STM32_ADCSEL    | STM32_I2S1SEL    | STM32_I2C1SEL   |
 80033c2:	6553      	str	r3, [r2, #84]	@ 0x54
  FLASH->ACR = acr;
 80033c4:	4916      	ldr	r1, [pc, #88]	@ (8003420 <__early_init+0x1d0>)
  RCC->CCIPR2 =  STM32_USBSEL;
 80033c6:	6593      	str	r3, [r2, #88]	@ 0x58
  FLASH->ACR = acr;
 80033c8:	4a16      	ldr	r2, [pc, #88]	@ (8003424 <__early_init+0x1d4>)
 80033ca:	6011      	str	r1, [r2, #0]
  while ((FLASH->ACR & FLASH_ACR_LATENCY_Msk) != (acr & FLASH_ACR_LATENCY_Msk)) {
 80033cc:	6813      	ldr	r3, [r2, #0]
 80033ce:	404b      	eors	r3, r1
 80033d0:	4218      	tst	r0, r3
 80033d2:	d1fb      	bne.n	80033cc <__early_init+0x17c>

  stm32_gpio_init();
  stm32_clock_init();
}
 80033d4:	bd70      	pop	{r4, r5, r6, pc}
 80033d6:	46c0      	nop			@ (mov r8, r8)
 80033d8:	40021000 	.word	0x40021000
 80033dc:	0000ffff 	.word	0x0000ffff
 80033e0:	55555555 	.word	0x55555555
 80033e4:	64155105 	.word	0x64155105
 80033e8:	01555554 	.word	0x01555554
 80033ec:	0000ffdf 	.word	0x0000ffdf
 80033f0:	2bc004a0 	.word	0x2bc004a0
 80033f4:	50000400 	.word	0x50000400
 80033f8:	50000800 	.word	0x50000800
 80033fc:	50000c00 	.word	0x50000c00
 8003400:	55555550 	.word	0x55555550
 8003404:	50001400 	.word	0x50001400
 8003408:	fffffbff 	.word	0xfffffbff
 800340c:	efffffff 	.word	0xefffffff
 8003410:	40007000 	.word	0x40007000
 8003414:	00001801 	.word	0x00001801
 8003418:	fcfffcff 	.word	0xfcfffcff
 800341c:	ffffc71f 	.word	0xffffc71f
 8003420:	00040301 	.word	0x00040301
 8003424:	40022000 	.word	0x40022000
	...

08003430 <chSchDoPreemption>:
 *
 * @special
 */
void chSchDoPreemption(void) {
  os_instance_t *oip = currcore;
  thread_t *otp = __instance_get_currthread(oip);
 8003430:	4b0d      	ldr	r3, [pc, #52]	@ (8003468 <chSchDoPreemption+0x38>)
void chSchDoPreemption(void) {
 8003432:	b510      	push	{r4, lr}
  ch_priority_queue_t *p = pqp->next;
 8003434:	6818      	ldr	r0, [r3, #0]
  thread_t *otp = __instance_get_currthread(oip);
 8003436:	68d9      	ldr	r1, [r3, #12]
  pqp->next       = p->next;
 8003438:	6802      	ldr	r2, [r0, #0]
  thread_t *ntp;

  /* Picks the first thread from the ready queue and makes it current.*/
  ntp = threadref(ch_pqueue_remove_highest(&oip->rlist.pqueue));
  ntp->state = CH_STATE_CURRENT;
 800343a:	2401      	movs	r4, #1
  pqp->next->prev = pqp;
 800343c:	6053      	str	r3, [r2, #4]
  pqp->next       = p->next;
 800343e:	601a      	str	r2, [r3, #0]
  __instance_set_currthread(oip, ntp);
 8003440:	60d8      	str	r0, [r3, #12]
  ntp->state = CH_STATE_CURRENT;
 8003442:	2224      	movs	r2, #36	@ 0x24
  tp->state = CH_STATE_READY;
 8003444:	2300      	movs	r3, #0
  ntp->state = CH_STATE_CURRENT;
 8003446:	5484      	strb	r4, [r0, r2]
  tp->state = CH_STATE_READY;
 8003448:	548b      	strb	r3, [r1, r2]
  return threadref(ch_pqueue_insert_ahead(&tp->owner->rlist.pqueue,
 800344a:	698b      	ldr	r3, [r1, #24]
  } while (unlikely(pqp->prio > p->prio));
 800344c:	688c      	ldr	r4, [r1, #8]
    pqp = pqp->next;
 800344e:	681b      	ldr	r3, [r3, #0]
  } while (unlikely(pqp->prio > p->prio));
 8003450:	689a      	ldr	r2, [r3, #8]
 8003452:	42a2      	cmp	r2, r4
 8003454:	d8fb      	bhi.n	800344e <chSchDoPreemption+0x1e>
  p->prev       = pqp->prev;
 8003456:	685a      	ldr	r2, [r3, #4]
  p->next       = pqp;
 8003458:	600b      	str	r3, [r1, #0]
  p->prev       = pqp->prev;
 800345a:	604a      	str	r2, [r1, #4]
  p->prev->next = p;
 800345c:	6011      	str	r1, [r2, #0]
  pqp->prev     = p;
 800345e:	6059      	str	r1, [r3, #4]
     ahead of its peers.*/
  otp = __sch_ready_ahead(otp);
#endif /* !(CH_CFG_TIME_QUANTUM > 0) */

  /* Swap operation as tail call.*/
  chSysSwitch(ntp, otp);
 8003460:	f7fc fe9a 	bl	8000198 <__port_switch>
}
 8003464:	bd10      	pop	{r4, pc}
 8003466:	46c0      	nop			@ (mov r8, r8)
 8003468:	200010b0 	.word	0x200010b0
 800346c:	00000000 	.word	0x00000000

08003470 <chThdExit>:
void chThdExit(msg_t msg) {
 8003470:	b5f0      	push	{r4, r5, r6, r7, lr}
 8003472:	46c6      	mov	lr, r8
 8003474:	b500      	push	{lr}
  __ASM volatile ("cpsid i" : : : "memory");
 8003476:	b672      	cpsid	i
  return __sch_get_currthread();
 8003478:	4b1d      	ldr	r3, [pc, #116]	@ (80034f0 <chThdExit+0x80>)
 800347a:	68d9      	ldr	r1, [r3, #12]
  currtp->u.exitcode = msg;
 800347c:	6288      	str	r0, [r1, #40]	@ 0x28
  while (unlikely(ch_list_notempty(&currtp->waiting))) {
 800347e:	0008      	movs	r0, r1
  return (bool)(lp->next != lp);
 8003480:	6aca      	ldr	r2, [r1, #44]	@ 0x2c
 8003482:	302c      	adds	r0, #44	@ 0x2c
 8003484:	4282      	cmp	r2, r0
 8003486:	d112      	bne.n	80034ae <chThdExit+0x3e>
  if (unlikely(currtp->refs == (trefs_t)0)) {
 8003488:	2226      	movs	r2, #38	@ 0x26
 800348a:	5c8a      	ldrb	r2, [r1, r2]
 800348c:	2a00      	cmp	r2, #0
 800348e:	d026      	beq.n	80034de <chThdExit+0x6e>
  otp->state = newstate;
 8003490:	2224      	movs	r2, #36	@ 0x24
 8003492:	200f      	movs	r0, #15
 8003494:	5488      	strb	r0, [r1, r2]
  ch_priority_queue_t *p = pqp->next;
 8003496:	6818      	ldr	r0, [r3, #0]
  pqp->next       = p->next;
 8003498:	6804      	ldr	r4, [r0, #0]
  pqp->next->prev = pqp;
 800349a:	6063      	str	r3, [r4, #4]
  pqp->next       = p->next;
 800349c:	601c      	str	r4, [r3, #0]
  ntp->state = CH_STATE_CURRENT;
 800349e:	2401      	movs	r4, #1
 80034a0:	5484      	strb	r4, [r0, r2]
  __instance_set_currthread(oip, ntp);
 80034a2:	60d8      	str	r0, [r3, #12]
  chSysSwitch(ntp, otp);
 80034a4:	f7fc fe78 	bl	8000198 <__port_switch>
}
 80034a8:	bc80      	pop	{r7}
 80034aa:	46b8      	mov	r8, r7
 80034ac:	bdf0      	pop	{r4, r5, r6, r7, pc}
  tp->state = CH_STATE_READY;
 80034ae:	2424      	movs	r4, #36	@ 0x24
 80034b0:	46a0      	mov	r8, r4
 80034b2:	2400      	movs	r4, #0
 80034b4:	46a4      	mov	ip, r4
 80034b6:	4644      	mov	r4, r8
 80034b8:	4666      	mov	r6, ip
  lp->next = p->next;
 80034ba:	6815      	ldr	r5, [r2, #0]
 80034bc:	62cd      	str	r5, [r1, #44]	@ 0x2c
 80034be:	5516      	strb	r6, [r2, r4]
  return threadref(ch_pqueue_insert_behind(&tp->owner->rlist.pqueue,
 80034c0:	6994      	ldr	r4, [r2, #24]
  } while (unlikely(pqp->prio >= p->prio));
 80034c2:	6897      	ldr	r7, [r2, #8]
    pqp = pqp->next;
 80034c4:	6824      	ldr	r4, [r4, #0]
  } while (unlikely(pqp->prio >= p->prio));
 80034c6:	68a6      	ldr	r6, [r4, #8]
 80034c8:	42be      	cmp	r6, r7
 80034ca:	d2fb      	bcs.n	80034c4 <chThdExit+0x54>
  p->prev       = pqp->prev;
 80034cc:	6866      	ldr	r6, [r4, #4]
  p->next       = pqp;
 80034ce:	6014      	str	r4, [r2, #0]
  p->prev       = pqp->prev;
 80034d0:	6056      	str	r6, [r2, #4]
  p->prev->next = p;
 80034d2:	6032      	str	r2, [r6, #0]
  pqp->prev     = p;
 80034d4:	6062      	str	r2, [r4, #4]
  while (unlikely(ch_list_notempty(&currtp->waiting))) {
 80034d6:	4285      	cmp	r5, r0
 80034d8:	d0d6      	beq.n	8003488 <chThdExit+0x18>
 80034da:	002a      	movs	r2, r5
 80034dc:	e7eb      	b.n	80034b6 <chThdExit+0x46>
    if (unlikely(((currtp->flags & CH_FLAG_MODE_MASK) == CH_FLAG_MODE_STATIC))) {
 80034de:	3225      	adds	r2, #37	@ 0x25
 80034e0:	5c8a      	ldrb	r2, [r1, r2]
 80034e2:	0792      	lsls	r2, r2, #30
 80034e4:	d1d4      	bne.n	8003490 <chThdExit+0x20>
  p->prev->next = p->next;
 80034e6:	6948      	ldr	r0, [r1, #20]
 80034e8:	690a      	ldr	r2, [r1, #16]
 80034ea:	6002      	str	r2, [r0, #0]
  p->next->prev = p->prev;
 80034ec:	6050      	str	r0, [r2, #4]
  return p;
 80034ee:	e7cf      	b.n	8003490 <chThdExit+0x20>
 80034f0:	200010b0 	.word	0x200010b0
	...

08003500 <NMI_Handler>:
  __ASM volatile ("MRS %0, psp"  : "=r" (result) );
 8003500:	f3ef 8309 	mrs	r3, PSP
  ctxp++;
 8003504:	3320      	adds	r3, #32
  __ASM volatile ("MSR psp, %0" : : "r" (topOfProcStack) : );
 8003506:	f383 8809 	msr	PSP, r3
  __ASM volatile ("cpsie i" : : : "memory");
 800350a:	b662      	cpsie	i
}
 800350c:	4770      	bx	lr
 800350e:	46c0      	nop			@ (mov r8, r8)

08003510 <main>:
//#define USB_DP_LINE                 PAL_LINE(GPIOA, 11U)
//#define USB_DM_LINE                 PAL_LINE(GPIOA, 12U)
//#define USB_DP_LINE_MODE            PAL_MODE_INPUT_ANALOG
//#define USB_DM_LINE_MODE            PAL_MODE_INPUT_ANALOG

int main(void) {
 8003510:	b5f8      	push	{r3, r4, r5, r6, r7, lr}
  dma.allocated_mask = 0U;
 8003512:	4bf4      	ldr	r3, [pc, #976]	@ (80038e4 <main+0x3d4>)
 8003514:	4645      	mov	r5, r8
 8003516:	4698      	mov	r8, r3
 8003518:	46de      	mov	lr, fp
 800351a:	2300      	movs	r3, #0
 800351c:	4642      	mov	r2, r8
 800351e:	4657      	mov	r7, sl
 8003520:	464e      	mov	r6, r9
 8003522:	b5e0      	push	{r5, r6, r7, lr}
 8003524:	6013      	str	r3, [r2, #0]
  dma.isr_mask       = 0U;
 8003526:	6053      	str	r3, [r2, #4]
    _stm32_dma_streams[i].channel->CCR = STM32_DMA_CCR_RESET_VALUE;
 8003528:	4aef      	ldr	r2, [pc, #956]	@ (80038e8 <main+0x3d8>)
    NVIC->__ICER[i] = 0xFFFFFFFFU;
 800352a:	2180      	movs	r1, #128	@ 0x80
 800352c:	6013      	str	r3, [r2, #0]
    dma.streams[i].func = NULL;
 800352e:	4642      	mov	r2, r8
 8003530:	6093      	str	r3, [r2, #8]
    _stm32_dma_streams[i].channel->CCR = STM32_DMA_CCR_RESET_VALUE;
 8003532:	4aee      	ldr	r2, [pc, #952]	@ (80038ec <main+0x3dc>)
    _pal_init_event(i);
 8003534:	2500      	movs	r5, #0
 8003536:	6013      	str	r3, [r2, #0]
    dma.streams[i].func = NULL;
 8003538:	4642      	mov	r2, r8
 800353a:	6113      	str	r3, [r2, #16]
    _stm32_dma_streams[i].channel->CCR = STM32_DMA_CCR_RESET_VALUE;
 800353c:	4aec      	ldr	r2, [pc, #944]	@ (80038f0 <main+0x3e0>)
  nvicEnableVector(STM32_EXTI0_1_NUMBER, STM32_IRQ_EXTI0_1_PRIORITY);
 800353e:	2005      	movs	r0, #5
 8003540:	6013      	str	r3, [r2, #0]
    dma.streams[i].func = NULL;
 8003542:	4642      	mov	r2, r8
 8003544:	6193      	str	r3, [r2, #24]
    _stm32_dma_streams[i].channel->CCR = STM32_DMA_CCR_RESET_VALUE;
 8003546:	4aeb      	ldr	r2, [pc, #940]	@ (80038f4 <main+0x3e4>)
 8003548:	6013      	str	r3, [r2, #0]
    dma.streams[i].func = NULL;
 800354a:	4642      	mov	r2, r8
 800354c:	6213      	str	r3, [r2, #32]
    _stm32_dma_streams[i].channel->CCR = STM32_DMA_CCR_RESET_VALUE;
 800354e:	4aea      	ldr	r2, [pc, #936]	@ (80038f8 <main+0x3e8>)
 8003550:	6013      	str	r3, [r2, #0]
    dma.streams[i].func = NULL;
 8003552:	4642      	mov	r2, r8
 8003554:	6293      	str	r3, [r2, #40]	@ 0x28
  DMA1->IFCR = 0xFFFFFFFFU;
 8003556:	4ae9      	ldr	r2, [pc, #932]	@ (80038fc <main+0x3ec>)
 8003558:	3b01      	subs	r3, #1
 800355a:	6053      	str	r3, [r2, #4]
 800355c:	4ae8      	ldr	r2, [pc, #928]	@ (8003900 <main+0x3f0>)
 800355e:	5053      	str	r3, [r2, r1]
    NVIC->__ICPR[i] = 0xFFFFFFFFU;
 8003560:	3101      	adds	r1, #1
 8003562:	31ff      	adds	r1, #255	@ 0xff
 8003564:	5053      	str	r3, [r2, r1]
 8003566:	397e      	subs	r1, #126	@ 0x7e
 8003568:	39ff      	subs	r1, #255	@ 0xff
 800356a:	f7fd f831 	bl	80005d0 <nvicEnableVector>
  nvicEnableVector(STM32_EXTI2_3_NUMBER, STM32_IRQ_EXTI2_3_PRIORITY);
 800356e:	2103      	movs	r1, #3
 8003570:	2006      	movs	r0, #6
 8003572:	f7fd f82d 	bl	80005d0 <nvicEnableVector>
  nvicEnableVector(STM32_EXTI4_15_NUMBER, STM32_IRQ_EXTI4_15_PRIORITY);
 8003576:	2103      	movs	r1, #3
 8003578:	2007      	movs	r0, #7
 800357a:	f7fd f829 	bl	80005d0 <nvicEnableVector>
  nvicEnableVector(STM32_TIM16_NUMBER, STM32_IRQ_TIM16_PRIORITY);
 800357e:	2101      	movs	r1, #1
 8003580:	2015      	movs	r0, #21
 8003582:	f7fd f825 	bl	80005d0 <nvicEnableVector>
  nvicEnableVector(STM32_TIM17_NUMBER, STM32_IRQ_TIM17_PRIORITY);
 8003586:	2101      	movs	r1, #1
 8003588:	2016      	movs	r0, #22
 800358a:	f7fd f821 	bl	80005d0 <nvicEnableVector>
  nvicEnableVector(STM32_USART2_NUMBER, STM32_IRQ_USART2_PRIORITY);
 800358e:	2102      	movs	r1, #2
 8003590:	201c      	movs	r0, #28
 8003592:	f7fd f81d 	bl	80005d0 <nvicEnableVector>
  for (i = 0; i < 16; i++) {
 8003596:	4bdb      	ldr	r3, [pc, #876]	@ (8003904 <main+0x3f4>)
 8003598:	1c5a      	adds	r2, r3, #1
 800359a:	32ff      	adds	r2, #255	@ 0xff
  qp->next = qp;
 800359c:	601b      	str	r3, [r3, #0]
  qp->prev = qp;
 800359e:	605b      	str	r3, [r3, #4]
    _pal_init_event(i);
 80035a0:	609d      	str	r5, [r3, #8]
 80035a2:	60dd      	str	r5, [r3, #12]
  for (i = 0; i < 16; i++) {
 80035a4:	3310      	adds	r3, #16
 80035a6:	429a      	cmp	r2, r3
 80035a8:	d1f8      	bne.n	800359c <main+0x8c>
 *
 * @init
 */
void pwmObjectInit(PWMDriver *pwmp) {

  pwmp->state    = PWM_STOP;
 80035aa:	4ed7      	ldr	r6, [pc, #860]	@ (8003908 <main+0x3f8>)
  PWMD16.tim = STM32_TIM16;
 80035ac:	4bd7      	ldr	r3, [pc, #860]	@ (800390c <main+0x3fc>)
  sdp->vmt = &vmt;
 80035ae:	49d8      	ldr	r1, [pc, #864]	@ (8003910 <main+0x400>)
 80035b0:	61f3      	str	r3, [r6, #28]
 80035b2:	4bd8      	ldr	r3, [pc, #864]	@ (8003914 <main+0x404>)
 80035b4:	2401      	movs	r4, #1
 80035b6:	001a      	movs	r2, r3
 80035b8:	c202      	stmia	r2!, {r1}
 *
 * @init
 */
static inline void chEvtObjectInit(event_source_t *esp) {

  esp->next = (event_listener_t *)esp;
 80035ba:	605a      	str	r2, [r3, #4]
  qp->next = qp;
 80035bc:	001a      	movs	r2, r3
 80035be:	320c      	adds	r2, #12
 80035c0:	60da      	str	r2, [r3, #12]
  qp->prev = qp;
 80035c2:	611a      	str	r2, [r3, #16]
  iqp->q_buffer  = bp;
 80035c4:	4ad4      	ldr	r2, [pc, #848]	@ (8003918 <main+0x408>)
  iqp->q_counter = 0;
 80035c6:	615d      	str	r5, [r3, #20]
  iqp->q_buffer  = bp;
 80035c8:	619a      	str	r2, [r3, #24]
  iqp->q_rdptr   = bp;
 80035ca:	625a      	str	r2, [r3, #36]	@ 0x24
  iqp->q_wrptr   = bp;
 80035cc:	621a      	str	r2, [r3, #32]
  iqp->q_top     = bp + size;
 80035ce:	3210      	adds	r2, #16
 80035d0:	61da      	str	r2, [r3, #28]
  qp->next = qp;
 80035d2:	001a      	movs	r2, r3
 80035d4:	3230      	adds	r2, #48	@ 0x30
 80035d6:	631a      	str	r2, [r3, #48]	@ 0x30
  qp->prev = qp;
 80035d8:	635a      	str	r2, [r3, #52]	@ 0x34
  oqp->q_counter = size;
 80035da:	2210      	movs	r2, #16
 80035dc:	639a      	str	r2, [r3, #56]	@ 0x38
  oqp->q_buffer  = bp;
 80035de:	4acf      	ldr	r2, [pc, #828]	@ (800391c <main+0x40c>)
  sdp->state = SD_STOP;
 80035e0:	721c      	strb	r4, [r3, #8]
 80035e2:	63da      	str	r2, [r3, #60]	@ 0x3c
  oqp->q_rdptr   = bp;
 80035e4:	649a      	str	r2, [r3, #72]	@ 0x48
  oqp->q_wrptr   = bp;
 80035e6:	645a      	str	r2, [r3, #68]	@ 0x44
  oqp->q_top     = bp + size;
 80035e8:	3210      	adds	r2, #16
 80035ea:	641a      	str	r2, [r3, #64]	@ 0x40
  oqp->q_notify  = onfy;
 80035ec:	4acc      	ldr	r2, [pc, #816]	@ (8003920 <main+0x410>)
  iqp->q_notify  = infy;
 80035ee:	629d      	str	r5, [r3, #40]	@ 0x28
  oqp->q_notify  = onfy;
 80035f0:	64da      	str	r2, [r3, #76]	@ 0x4c
 80035f2:	7034      	strb	r4, [r6, #0]
  PWMD16.channels = STM32_TIM16_CHANNELS;
 80035f4:	7434      	strb	r4, [r6, #16]
  PWMD16.has_bdtr = true;
 80035f6:	7634      	strb	r4, [r6, #24]
  iqp->q_link    = link;
 80035f8:	62db      	str	r3, [r3, #44]	@ 0x2c
  pwmp->config   = NULL;
 80035fa:	6075      	str	r5, [r6, #4]
  pwmp->enabled  = 0;
 80035fc:	60f5      	str	r5, [r6, #12]
  oqp->q_link    = link;
 80035fe:	651b      	str	r3, [r3, #80]	@ 0x50
  usbp->state        = USB_STOP;
 8003600:	4fc8      	ldr	r7, [pc, #800]	@ (8003924 <main+0x414>)
  SD2.usart = USART2;
 8003602:	4ac9      	ldr	r2, [pc, #804]	@ (8003928 <main+0x418>)
    usbp->in_params[i]  = NULL;
 8003604:	0038      	movs	r0, r7
 8003606:	655a      	str	r2, [r3, #84]	@ 0x54
  SD2.clock = STM32_USART2CLK;
 8003608:	4ac8      	ldr	r2, [pc, #800]	@ (800392c <main+0x41c>)
 800360a:	2100      	movs	r1, #0
 800360c:	659a      	str	r2, [r3, #88]	@ 0x58
 800360e:	302c      	adds	r0, #44	@ 0x2c
 8003610:	2238      	movs	r2, #56	@ 0x38
  usbp->state        = USB_STOP;
 8003612:	703c      	strb	r4, [r7, #0]
  usbp->config       = NULL;
 8003614:	607d      	str	r5, [r7, #4]
    usbp->in_params[i]  = NULL;
 8003616:	f7fc fde1 	bl	80001dc <memset>
  USBD1.usb = STM32_USB;
 800361a:	2384      	movs	r3, #132	@ 0x84
 800361c:	469a      	mov	sl, r3
 800361e:	4652      	mov	r2, sl
 8003620:	4bc3      	ldr	r3, [pc, #780]	@ (8003930 <main+0x420>)
  usbp->transmitting = 0;
 8003622:	60bd      	str	r5, [r7, #8]
 8003624:	50bb      	str	r3, [r7, r2]
  ST_ENABLE_CLOCK();
 8003626:	4bc3      	ldr	r3, [pc, #780]	@ (8003934 <main+0x424>)
             (align >= PORT_NATURAL_ALIGN) &&
             MEM_IS_VALID_ALIGNMENT(align));

  mp->next = NULL;
  mp->object_size = size;
  mp->align = align;
 8003628:	2004      	movs	r0, #4
 800362a:	4699      	mov	r9, r3
 800362c:	6c1a      	ldr	r2, [r3, #64]	@ 0x40
 800362e:	2380      	movs	r3, #128	@ 0x80
 8003630:	4649      	mov	r1, r9
 8003632:	02db      	lsls	r3, r3, #11
 8003634:	431a      	orrs	r2, r3
 8003636:	640a      	str	r2, [r1, #64]	@ 0x40
 8003638:	6d0a      	ldr	r2, [r1, #80]	@ 0x50
 800363a:	431a      	orrs	r2, r3
 800363c:	650a      	str	r2, [r1, #80]	@ 0x50
 800363e:	464a      	mov	r2, r9
 8003640:	6d12      	ldr	r2, [r2, #80]	@ 0x50
  ST_ENABLE_STOP();
 8003642:	4abd      	ldr	r2, [pc, #756]	@ (8003938 <main+0x428>)
 8003644:	68d1      	ldr	r1, [r2, #12]
 8003646:	430b      	orrs	r3, r1
 8003648:	60d3      	str	r3, [r2, #12]
  STM32_ST_TIM->PSC    = (ST_CLOCK_SRC / OSAL_ST_FREQUENCY) - 1;
 800364a:	4abc      	ldr	r2, [pc, #752]	@ (800393c <main+0x42c>)
 800364c:	4bbc      	ldr	r3, [pc, #752]	@ (8003940 <main+0x430>)
  ch_memcore.basemem = __heap_base__;
 800364e:	49bd      	ldr	r1, [pc, #756]	@ (8003944 <main+0x434>)
 8003650:	6293      	str	r3, [r2, #40]	@ 0x28
  STM32_ST_TIM->ARR    = ST_ARR_INIT;
 8003652:	4bbd      	ldr	r3, [pc, #756]	@ (8003948 <main+0x438>)
 8003654:	62d3      	str	r3, [r2, #44]	@ 0x2c
 8003656:	4bbd      	ldr	r3, [pc, #756]	@ (800394c <main+0x43c>)
  STM32_ST_TIM->CCMR1  = 0;
 8003658:	6195      	str	r5, [r2, #24]
  STM32_ST_TIM->CCR[0] = 0;
 800365a:	6355      	str	r5, [r2, #52]	@ 0x34
  STM32_ST_TIM->DIER   = 0;
 800365c:	60d5      	str	r5, [r2, #12]
  STM32_ST_TIM->CR2    = 0;
 800365e:	6055      	str	r5, [r2, #4]
  STM32_ST_TIM->EGR    = TIM_EGR_UG;
 8003660:	6154      	str	r4, [r2, #20]
  STM32_ST_TIM->CR1    = TIM_CR1_CEN;
 8003662:	6014      	str	r4, [r2, #0]
 8003664:	6019      	str	r1, [r3, #0]
  ch_memcore.topmem  = __heap_end__;
 8003666:	49ba      	ldr	r1, [pc, #744]	@ (8003950 <main+0x440>)
  } while ((c != (char)0) && (i > 0U));
}

static inline void dyn_list_init(dyn_list_t *dlp) {

  dlp->next = (dyn_element_t *)dlp;
 8003668:	3423      	adds	r4, #35	@ 0x23
 800366a:	6059      	str	r1, [r3, #4]
 *
 * @notapi
 */
void __heap_init(void) {

  default_heap.provider = chCoreAllocAlignedWithOffset;
 800366c:	4bb9      	ldr	r3, [pc, #740]	@ (8003954 <main+0x444>)
 800366e:	49ba      	ldr	r1, [pc, #744]	@ (8003958 <main+0x448>)
 8003670:	46a4      	mov	ip, r4
 8003672:	6019      	str	r1, [r3, #0]
  qp->next = qp;
 8003674:	0019      	movs	r1, r3
 8003676:	310c      	adds	r1, #12
  H_NEXT(&default_heap.header) = NULL;
 8003678:	605d      	str	r5, [r3, #4]
  H_PAGES(&default_heap.header) = 0;
 800367a:	609d      	str	r5, [r3, #8]
 800367c:	60d9      	str	r1, [r3, #12]
  qp->prev = qp;
 800367e:	6119      	str	r1, [r3, #16]
void chMtxObjectInit(mutex_t *mp) {

  chDbgCheck(mp != NULL);

  ch_queue_init(&mp->queue);
  mp->owner = NULL;
 8003680:	615d      	str	r5, [r3, #20]
  qp->next = qp;
 8003682:	4bb6      	ldr	r3, [pc, #728]	@ (800395c <main+0x44c>)
 8003684:	0019      	movs	r1, r3
 8003686:	449c      	add	ip, r3
 8003688:	4664      	mov	r4, ip
 800368a:	3110      	adds	r1, #16
 800368c:	601b      	str	r3, [r3, #0]
  qp->prev = qp;
 800368e:	605b      	str	r3, [r3, #4]
 8003690:	6119      	str	r1, [r3, #16]
  mp->object_size = size;
 8003692:	2114      	movs	r1, #20
 8003694:	625c      	str	r4, [r3, #36]	@ 0x24
 8003696:	2428      	movs	r4, #40	@ 0x28
 8003698:	6199      	str	r1, [r3, #24]
  mp->provider = provider;
 800369a:	49b1      	ldr	r1, [pc, #708]	@ (8003960 <main+0x450>)
 800369c:	46a4      	mov	ip, r4
 800369e:	6219      	str	r1, [r3, #32]
 80036a0:	6399      	str	r1, [r3, #56]	@ 0x38
 80036a2:	0019      	movs	r1, r3
 80036a4:	313c      	adds	r1, #60	@ 0x3c
 80036a6:	63d9      	str	r1, [r3, #60]	@ 0x3c
 80036a8:	0019      	movs	r1, r3
 80036aa:	449c      	add	ip, r3
 80036ac:	4664      	mov	r4, ip
 80036ae:	3140      	adds	r1, #64	@ 0x40
 80036b0:	6419      	str	r1, [r3, #64]	@ 0x40
 80036b2:	0019      	movs	r1, r3
 80036b4:	629c      	str	r4, [r3, #40]	@ 0x28
  mp->object_size = size;
 80036b6:	241c      	movs	r4, #28
 80036b8:	3144      	adds	r1, #68	@ 0x44
  mp->align = align;
 80036ba:	61d8      	str	r0, [r3, #28]
  mp->object_size = size;
 80036bc:	631c      	str	r4, [r3, #48]	@ 0x30
  mp->align = align;
 80036be:	6358      	str	r0, [r3, #52]	@ 0x34
 80036c0:	609d      	str	r5, [r3, #8]
  mp->next = NULL;
 80036c2:	615d      	str	r5, [r3, #20]
 80036c4:	6459      	str	r1, [r3, #68]	@ 0x44
 80036c6:	62dd      	str	r5, [r3, #44]	@ 0x2c
#endif
  chDbgAssert(ch_system.instances[core_id] == NULL, "instance already registered");
  ch_system.instances[core_id] = oip;

  /* Core associated to this instance.*/
  oip->core_id = core_id;
 80036c8:	4ba6      	ldr	r3, [pc, #664]	@ (8003964 <main+0x454>)

  /* Keeping a reference to the configuration data.*/
  oip->config = oicp;
 80036ca:	49a7      	ldr	r1, [pc, #668]	@ (8003968 <main+0x458>)
    NVIC->IP[_IP_IDX(IRQn)]  = ((uint32_t)(NVIC->IP[_IP_IDX(IRQn)]  & ~(0xFFUL << _BIT_SHIFT(IRQn))) |
       (((priority << (8U - __NVIC_PRIO_BITS)) & (uint32_t)0xFFUL) << _BIT_SHIFT(IRQn)));
  }
  else
  {
    SCB->SHP[_SHP_IDX(IRQn)] = ((uint32_t)(SCB->SHP[_SHP_IDX(IRQn)] & ~(0xFFUL << _BIT_SHIFT(IRQn))) |
 80036cc:	48a7      	ldr	r0, [pc, #668]	@ (800396c <main+0x45c>)
  oip->core_id = core_id;
 80036ce:	631d      	str	r5, [r3, #48]	@ 0x30
  oip->config = oicp;
 80036d0:	6399      	str	r1, [r3, #56]	@ 0x38
 80036d2:	4ca7      	ldr	r4, [pc, #668]	@ (8003970 <main+0x460>)
 80036d4:	6a01      	ldr	r1, [r0, #32]
 80036d6:	4021      	ands	r1, r4
 80036d8:	6201      	str	r1, [r0, #32]
  dlhp->next  = dlhp;
 80036da:	0019      	movs	r1, r3
 80036dc:	3110      	adds	r1, #16
 80036de:	6119      	str	r1, [r3, #16]
  dlhp->prev  = dlhp;
 80036e0:	6159      	str	r1, [r3, #20]
  dlhp->delta = (sysinterval_t)-1;
 80036e2:	2101      	movs	r1, #1
  pqp->prio = (tprio_t)0;
 80036e4:	609d      	str	r5, [r3, #8]
 *
 * @notapi
 */
static inline void __rfcu_object_init(rfcu_t *rfcup) {

  rfcup->mask = (rfcu_mask_t)0;
 80036e6:	635d      	str	r5, [r3, #52]	@ 0x34
 80036e8:	6a52      	ldr	r2, [r2, #36]	@ 0x24
  dlhp->delta = (sysinterval_t)-1;
 80036ea:	4249      	negs	r1, r1
 80036ec:	8319      	strh	r1, [r3, #24]
  vtlp->systime = (systime_t)0;
#else /* CH_CFG_ST_TIMEDELTA > 0 */
  vtlp->lasttime = (systime_t)0;
#endif /* CH_CFG_ST_TIMEDELTA > 0 */
#if CH_CFG_USE_TIMESTAMP == TRUE
  vtlp->laststamp = (systimestamp_t)chVTGetSystemTimeX();
 80036ee:	b290      	uxth	r0, r2
 80036f0:	2100      	movs	r1, #0
 *
 * @notapi
 */
static inline void __dbg_object_init(system_debug_t *sdp) {

  sdp->panic_msg = NULL;
 80036f2:	4652      	mov	r2, sl
  tp->refs              = (trefs_t)1;
 80036f4:	2401      	movs	r4, #1
 80036f6:	6218      	str	r0, [r3, #32]
 80036f8:	6259      	str	r1, [r3, #36]	@ 0x24
 80036fa:	509d      	str	r5, [r3, r2]
  tp->hdr.pqueue.prio   = prio;
 80036fc:	3a04      	subs	r2, #4
 80036fe:	645a      	str	r2, [r3, #68]	@ 0x44
  vtlp->lasttime = (systime_t)0;
 8003700:	839d      	strh	r5, [r3, #28]
  tp->owner             = oip;
 8003702:	655b      	str	r3, [r3, #84]	@ 0x54
  tp->realprio          = prio;
 8003704:	67da      	str	r2, [r3, #124]	@ 0x7c
  tp->refs              = (trefs_t)1;
 8003706:	3a1e      	subs	r2, #30
 8003708:	549c      	strb	r4, [r3, r2]
  tp->name              = name;
 800370a:	4a9a      	ldr	r2, [pc, #616]	@ (8003974 <main+0x464>)
  tp->wabase = tdp->wbase;
 800370c:	21b8      	movs	r1, #184	@ 0xb8
  tp->name              = name;
 800370e:	659a      	str	r2, [r3, #88]	@ 0x58
  p->prev->next = p;
 8003710:	4a99      	ldr	r2, [pc, #612]	@ (8003978 <main+0x468>)
  p->prev       = qp->prev;
 8003712:	0018      	movs	r0, r3
  p->prev->next = p;
 8003714:	629a      	str	r2, [r3, #40]	@ 0x28
  lp->next = lp;
 8003716:	001a      	movs	r2, r3
 8003718:	3268      	adds	r2, #104	@ 0x68
 800371a:	669a      	str	r2, [r3, #104]	@ 0x68
  qp->next = qp;
 800371c:	001a      	movs	r2, r3
 800371e:	326c      	adds	r2, #108	@ 0x6c
 8003720:	66da      	str	r2, [r3, #108]	@ 0x6c
  qp->prev = qp;
 8003722:	671a      	str	r2, [r3, #112]	@ 0x70
#endif

#if CH_CFG_NO_IDLE_THREAD == FALSE
  /* Now this instructions flow becomes the main thread.*/
#if CH_CFG_USE_REGISTRY == TRUE
  oip->rlist.current = __thd_object_init(oip, &oip->mainthread,
 8003724:	001a      	movs	r2, r3
 8003726:	323c      	adds	r2, #60	@ 0x3c
 8003728:	60da      	str	r2, [r3, #12]
#if (CH_DBG_ENABLE_STACK_CHECK == TRUE) || (CH_CFG_USE_DYNAMIC == TRUE)
  oip->rlist.current->wabase = oicp->mainthread_base;
#endif

  /* Setting up the caller as current thread.*/
  oip->rlist.current->state = CH_STATE_CURRENT;
 800372a:	2201      	movs	r2, #1
 800372c:	4693      	mov	fp, r2
 800372e:	2260      	movs	r2, #96	@ 0x60
 8003730:	529c      	strh	r4, [r3, r2]
  tp->wabase = tdp->wbase;
 8003732:	4a92      	ldr	r2, [pc, #584]	@ (800397c <main+0x46c>)
  p->prev       = qp->prev;
 8003734:	3028      	adds	r0, #40	@ 0x28
 8003736:	5052      	str	r2, [r2, r1]
  PORT_SETUP_CONTEXT(tp, tdp->wbase, tp, tdp->funcp, tdp->arg);
 8003738:	3944      	subs	r1, #68	@ 0x44
 800373a:	468c      	mov	ip, r1
 800373c:	4494      	add	ip, r2
 800373e:	4664      	mov	r4, ip
 8003740:	3130      	adds	r1, #48	@ 0x30
 8003742:	5054      	str	r4, [r2, r1]
 8003744:	4654      	mov	r4, sl
 8003746:	498e      	ldr	r1, [pc, #568]	@ (8003980 <main+0x470>)
  tp->mtxlist           = NULL;
 8003748:	679d      	str	r5, [r3, #120]	@ 0x78
  PORT_SETUP_CONTEXT(tp, tdp->wbase, tp, tdp->funcp, tdp->arg);
 800374a:	5111      	str	r1, [r2, r4]
 800374c:	2188      	movs	r1, #136	@ 0x88
 800374e:	5055      	str	r5, [r2, r1]
 8003750:	498c      	ldr	r1, [pc, #560]	@ (8003984 <main+0x474>)
 8003752:	3410      	adds	r4, #16
 8003754:	5111      	str	r1, [r2, r4]
  tp->hdr.pqueue.prio   = prio;
 8003756:	21a0      	movs	r1, #160	@ 0xa0
 8003758:	3c93      	subs	r4, #147	@ 0x93
 800375a:	5054      	str	r4, [r2, r1]
  tp->owner             = oip;
 800375c:	3110      	adds	r1, #16
 800375e:	5053      	str	r3, [r2, r1]
  tp->realprio          = prio;
 8003760:	3128      	adds	r1, #40	@ 0x28
 8003762:	5054      	str	r4, [r2, r1]
  tp->refs              = (trefs_t)1;
 8003764:	465c      	mov	r4, fp
  tp->mtxlist           = NULL;
 8003766:	3904      	subs	r1, #4
 8003768:	5055      	str	r5, [r2, r1]
  tp->epending          = (eventmask_t)0;
 800376a:	3904      	subs	r1, #4
 800376c:	5055      	str	r5, [r2, r1]
  tp->refs              = (trefs_t)1;
 800376e:	3912      	subs	r1, #18
 8003770:	5454      	strb	r4, [r2, r1]
  tp->name              = name;
 8003772:	24b4      	movs	r4, #180	@ 0xb4
 8003774:	4984      	ldr	r1, [pc, #528]	@ (8003988 <main+0x478>)
  tp->epending          = (eventmask_t)0;
 8003776:	675d      	str	r5, [r3, #116]	@ 0x74
  tp->name              = name;
 8003778:	5111      	str	r1, [r2, r4]
  p->next       = qp;
 800377a:	21a8      	movs	r1, #168	@ 0xa8
  p->prev       = qp->prev;
 800377c:	6518      	str	r0, [r3, #80]	@ 0x50
  p->next       = qp;
 800377e:	5050      	str	r0, [r2, r1]
  oip->rlist.current->wabase = oicp->mainthread_base;
 8003780:	65dd      	str	r5, [r3, #92]	@ 0x5c
  p->prev       = qp->prev;
 8003782:	487d      	ldr	r0, [pc, #500]	@ (8003978 <main+0x468>)
 8003784:	3104      	adds	r1, #4
 8003786:	5050      	str	r0, [r2, r1]
  p->prev->next = p;
 8003788:	0011      	movs	r1, r2
  lp->next = lp;
 800378a:	0010      	movs	r0, r2
  p->prev->next = p;
 800378c:	31a8      	adds	r1, #168	@ 0xa8
 800378e:	64d9      	str	r1, [r3, #76]	@ 0x4c
  qp->prev      = p;
 8003790:	62d9      	str	r1, [r3, #44]	@ 0x2c
  lp->next = lp;
 8003792:	21c4      	movs	r1, #196	@ 0xc4
 8003794:	30c4      	adds	r0, #196	@ 0xc4
 8003796:	5050      	str	r0, [r2, r1]
  qp->next = qp;
 8003798:	0011      	movs	r1, r2
 800379a:	20c8      	movs	r0, #200	@ 0xc8
 800379c:	31c8      	adds	r1, #200	@ 0xc8
 800379e:	5011      	str	r1, [r2, r0]
  qp->prev = qp;
 80037a0:	3004      	adds	r0, #4
 80037a2:	5011      	str	r1, [r2, r0]
  tp->state = CH_STATE_READY;
 80037a4:	21bc      	movs	r1, #188	@ 0xbc
 80037a6:	5255      	strh	r5, [r2, r1]
  p->next       = pqp;
 80037a8:	3924      	subs	r1, #36	@ 0x24
 80037aa:	5053      	str	r3, [r2, r1]
  p->prev       = pqp->prev;
 80037ac:	3104      	adds	r1, #4
 80037ae:	5053      	str	r3, [r2, r1]
  p->prev->next = p;
 80037b0:	3298      	adds	r2, #152	@ 0x98
 80037b2:	601a      	str	r2, [r3, #0]
  pqp->prev     = p;
 80037b4:	605a      	str	r2, [r3, #4]
 80037b6:	b662      	cpsie	i
  /*
   * Configuring USB DP and DM PINs.
   */
  //palSetPadMode(GPIOA, GPIOA_PIN11, PAL_MODE_INPUT_ANALOG);
  //palSetPadMode(GPIOA, GPIOA_PIN12, PAL_MODE_INPUT_ANALOG);
  palSetLineMode(USB_DP_LINE, USB_DP_LINE_MODE);
 80037b8:	2080      	movs	r0, #128	@ 0x80
 80037ba:	3999      	subs	r1, #153	@ 0x99
 80037bc:	0100      	lsls	r0, r0, #4
 80037be:	f7fc ffef 	bl	80007a0 <_pal_lld_setgroupmode.constprop.0>
  palSetLineMode(USB_DM_LINE, USB_DM_LINE_MODE);
 80037c2:	2080      	movs	r0, #128	@ 0x80
 80037c4:	2103      	movs	r1, #3
 80037c6:	0140      	lsls	r0, r0, #5
 80037c8:	f7fc ffea 	bl	80007a0 <_pal_lld_setgroupmode.constprop.0>
  sdup->vmt = &vmt;
 80037cc:	4c6f      	ldr	r4, [pc, #444]	@ (800398c <main+0x47c>)
 80037ce:	4a70      	ldr	r2, [pc, #448]	@ (8003990 <main+0x480>)
 80037d0:	0023      	movs	r3, r4
 80037d2:	c304      	stmia	r3!, {r2}
 80037d4:	6063      	str	r3, [r4, #4]
  sdup->state = SDU_STOP;
 80037d6:	465b      	mov	r3, fp
 80037d8:	7223      	strb	r3, [r4, #8]
  qp->next = qp;
 80037da:	0023      	movs	r3, r4
  ibqp->brdptr    = bp;
 80037dc:	0021      	movs	r1, r4
 80037de:	330c      	adds	r3, #12
 80037e0:	60e3      	str	r3, [r4, #12]
  qp->prev = qp;
 80037e2:	6123      	str	r3, [r4, #16]
  ibqp->suspended = suspended;
 80037e4:	465b      	mov	r3, fp
  ibqp->brdptr    = bp;
 80037e6:	317c      	adds	r1, #124	@ 0x7c
 80037e8:	6221      	str	r1, [r4, #32]
  ibqp->bwrptr    = bp;
 80037ea:	61e1      	str	r1, [r4, #28]
  ibqp->buffers   = bp;
 80037ec:	6321      	str	r1, [r4, #48]	@ 0x30
  ibqp->notify    = infy;
 80037ee:	4969      	ldr	r1, [pc, #420]	@ (8003994 <main+0x484>)
  ibqp->suspended = suspended;
 80037f0:	7523      	strb	r3, [r4, #20]
  ibqp->notify    = infy;
 80037f2:	63e1      	str	r1, [r4, #60]	@ 0x3c
  qp->next = qp;
 80037f4:	0021      	movs	r1, r4
  ibqp->btop      = bp + ((size + sizeof (size_t)) * n);
 80037f6:	23a1      	movs	r3, #161	@ 0xa1
 80037f8:	3144      	adds	r1, #68	@ 0x44
 80037fa:	6461      	str	r1, [r4, #68]	@ 0x44
  qp->prev = qp;
 80037fc:	64a1      	str	r1, [r4, #72]	@ 0x48
  obqp->suspended = suspended;
 80037fe:	4658      	mov	r0, fp
 8003800:	214c      	movs	r1, #76	@ 0x4c
  ibqp->btop      = bp + ((size + sizeof (size_t)) * n);
 8003802:	009b      	lsls	r3, r3, #2
 8003804:	18e2      	adds	r2, r4, r3
  ibqp->bsize     = size + sizeof (size_t);
 8003806:	3b81      	subs	r3, #129	@ 0x81
 8003808:	3bff      	subs	r3, #255	@ 0xff
 800380a:	469c      	mov	ip, r3
  obqp->suspended = suspended;
 800380c:	5460      	strb	r0, [r4, r1]
  obqp->btop      = bp + ((size + sizeof (size_t)) * n);
 800380e:	4962      	ldr	r1, [pc, #392]	@ (8003998 <main+0x488>)
  ibqp->bsize     = size + sizeof (size_t);
 8003810:	62a3      	str	r3, [r4, #40]	@ 0x28
  obqp->btop      = bp + ((size + sizeof (size_t)) * n);
 8003812:	1861      	adds	r1, r4, r1
 8003814:	65e1      	str	r1, [r4, #92]	@ 0x5c
  obqp->bsize     = size + sizeof (size_t);
 8003816:	4661      	mov	r1, ip
  ibqp->bn        = n;
 8003818:	3b03      	subs	r3, #3
 800381a:	3bff      	subs	r3, #255	@ 0xff
  ibqp->bcounter  = 0;
 800381c:	61a5      	str	r5, [r4, #24]
  ibqp->btop      = bp + ((size + sizeof (size_t)) * n);
 800381e:	6262      	str	r2, [r4, #36]	@ 0x24
  ibqp->bn        = n;
 8003820:	62e3      	str	r3, [r4, #44]	@ 0x2c
  ibqp->ptr       = NULL;
 8003822:	6365      	str	r5, [r4, #52]	@ 0x34
  ibqp->top       = NULL;
 8003824:	63a5      	str	r5, [r4, #56]	@ 0x38
  ibqp->link      = link;
 8003826:	6424      	str	r4, [r4, #64]	@ 0x40
  obqp->bcounter  = n;
 8003828:	6523      	str	r3, [r4, #80]	@ 0x50
  obqp->brdptr    = bp;
 800382a:	65a2      	str	r2, [r4, #88]	@ 0x58
  obqp->bwrptr    = bp;
 800382c:	6562      	str	r2, [r4, #84]	@ 0x54
  obqp->bsize     = size + sizeof (size_t);
 800382e:	6621      	str	r1, [r4, #96]	@ 0x60
  obqp->bn        = n;
 8003830:	6663      	str	r3, [r4, #100]	@ 0x64
  obqp->buffers   = bp;
 8003832:	66a2      	str	r2, [r4, #104]	@ 0x68
  obqp->ptr       = NULL;
 8003834:	66e5      	str	r5, [r4, #108]	@ 0x6c
  obqp->top       = NULL;
 8003836:	6725      	str	r5, [r4, #112]	@ 0x70
  obqp->notify    = onfy;
 8003838:	4a58      	ldr	r2, [pc, #352]	@ (800399c <main+0x48c>)
  obqp->link      = link;
 800383a:	67a4      	str	r4, [r4, #120]	@ 0x78
  obqp->notify    = onfy;
 800383c:	6762      	str	r2, [r4, #116]	@ 0x74
  __ASM volatile ("cpsid i" : : : "memory");
 800383e:	b672      	cpsid	i
  sdup->config = config;
 8003840:	4a57      	ldr	r2, [pc, #348]	@ (80039a0 <main+0x490>)
 8003842:	4955      	ldr	r1, [pc, #340]	@ (8003998 <main+0x488>)
  usbp->in_params[config->bulk_in - 1U]   = sdup;
 8003844:	62fc      	str	r4, [r7, #44]	@ 0x2c
  usbp->out_params[config->bulk_out - 1U] = sdup;
 8003846:	64bc      	str	r4, [r7, #72]	@ 0x48
    usbp->in_params[config->int_in - 1U]  = sdup;
 8003848:	633c      	str	r4, [r7, #48]	@ 0x30
  sdup->config = config;
 800384a:	5062      	str	r2, [r4, r1]
  sdup->state = SDU_READY;
 800384c:	7223      	strb	r3, [r4, #8]
  __ASM volatile ("cpsie i" : : : "memory");
 800384e:	b662      	cpsie	i
    /*
     * Activates the USB driver and then the USB bus pull-up on D+.
     * Note, a delay is inserted in order to not have to disconnect the cable
     * after a reset.
     */
    usbDisconnectBus(serusbcfg.usbp);
 8003850:	4653      	mov	r3, sl
 8003852:	58fa      	ldr	r2, [r7, r3]
 8003854:	4953      	ldr	r1, [pc, #332]	@ (80039a4 <main+0x494>)
 8003856:	6d93      	ldr	r3, [r2, #88]	@ 0x58
 8003858:	400b      	ands	r3, r1
 800385a:	6593      	str	r3, [r2, #88]	@ 0x58
  __ASM volatile ("cpsid i" : : : "memory");
 800385c:	b672      	cpsid	i
  (void) chSchGoSleepTimeoutS(CH_STATE_SLEEPING, ticks);
 800385e:	4952      	ldr	r1, [pc, #328]	@ (80039a8 <main+0x498>)
 8003860:	2008      	movs	r0, #8
 8003862:	f7fd fd05 	bl	8001270 <chSchGoSleepTimeoutS>
  __ASM volatile ("cpsie i" : : : "memory");
 8003866:	b662      	cpsie	i
  __ASM volatile ("cpsid i" : : : "memory");
 8003868:	b672      	cpsid	i
    usbp->epc[i] = NULL;
 800386a:	0038      	movs	r0, r7
  usbp->config = config;
 800386c:	4b4f      	ldr	r3, [pc, #316]	@ (80039ac <main+0x49c>)
    usbp->epc[i] = NULL;
 800386e:	2220      	movs	r2, #32
 8003870:	2100      	movs	r1, #0
 8003872:	300c      	adds	r0, #12
  usbp->config = config;
 8003874:	607b      	str	r3, [r7, #4]
    usbp->epc[i] = NULL;
 8003876:	f7fc fcb1 	bl	80001dc <memset>
  if (usbp->state == USB_STOP) {
 800387a:	783b      	ldrb	r3, [r7, #0]
 800387c:	2b01      	cmp	r3, #1
 800387e:	d000      	beq.n	8003882 <main+0x372>
 8003880:	e09a      	b.n	80039b8 <main+0x4a8>
      rccEnableUSB(true);
 8003882:	464a      	mov	r2, r9
 8003884:	6bd1      	ldr	r1, [r2, #60]	@ 0x3c
 8003886:	2280      	movs	r2, #128	@ 0x80
 8003888:	4648      	mov	r0, r9
 800388a:	0192      	lsls	r2, r2, #6
 800388c:	4311      	orrs	r1, r2
 800388e:	63c1      	str	r1, [r0, #60]	@ 0x3c
 8003890:	6cc1      	ldr	r1, [r0, #76]	@ 0x4c
 8003892:	4311      	orrs	r1, r2
 8003894:	64c1      	str	r1, [r0, #76]	@ 0x4c
 8003896:	4649      	mov	r1, r9
 8003898:	6cc9      	ldr	r1, [r1, #76]	@ 0x4c
      rccResetUSB();
 800389a:	6ac1      	ldr	r1, [r0, #44]	@ 0x2c
 800389c:	430a      	orrs	r2, r1
 800389e:	62c2      	str	r2, [r0, #44]	@ 0x2c
 80038a0:	6ac2      	ldr	r2, [r0, #44]	@ 0x2c
 80038a2:	4943      	ldr	r1, [pc, #268]	@ (80039b0 <main+0x4a0>)
 80038a4:	400a      	ands	r2, r1
 80038a6:	62c2      	str	r2, [r0, #44]	@ 0x2c
 80038a8:	464a      	mov	r2, r9
 80038aa:	6ad2      	ldr	r2, [r2, #44]	@ 0x2c
      usbp->usb->CNTR = USB_CNTR_USBRST;
 80038ac:	4652      	mov	r2, sl
 80038ae:	58ba      	ldr	r2, [r7, r2]
      nvicEnableVector(STM32_USB1_LP_NUMBER, STM32_USB_USB1_LP_IRQ_PRIORITY);
 80038b0:	2103      	movs	r1, #3
      usbp->usb->CNTR = USB_CNTR_USBRST;
 80038b2:	4691      	mov	r9, r2
 80038b4:	6413      	str	r3, [r2, #64]	@ 0x40
      nvicEnableVector(STM32_USB1_LP_NUMBER, STM32_USB_USB1_LP_IRQ_PRIORITY);
 80038b6:	2008      	movs	r0, #8
 80038b8:	f7fc fe8a 	bl	80005d0 <nvicEnableVector>
      usbp->usb->CNTR = 0U;
 80038bc:	464b      	mov	r3, r9
  usbp->usb->DADDR  = USB_DADDR_EF;
 80038be:	2280      	movs	r2, #128	@ 0x80
      usbp->usb->CNTR = 0U;
 80038c0:	641d      	str	r5, [r3, #64]	@ 0x40
  usbp->usb->ISTR   = 0U;
 80038c2:	645d      	str	r5, [r3, #68]	@ 0x44
  usbp->usb->DADDR  = USB_DADDR_EF;
 80038c4:	64da      	str	r2, [r3, #76]	@ 0x4c
  usbp->usb->CNTR = cntr;
 80038c6:	23be      	movs	r3, #190	@ 0xbe
 80038c8:	464a      	mov	r2, r9
 80038ca:	021b      	lsls	r3, r3, #8
 80038cc:	6413      	str	r3, [r2, #64]	@ 0x40
  usbp->pmnext = 64U;
 80038ce:	2340      	movs	r3, #64	@ 0x40
 80038d0:	2288      	movs	r2, #136	@ 0x88
 80038d2:	50bb      	str	r3, [r7, r2]
  usbp->epc[0] = &ep0config;
 80038d4:	4b37      	ldr	r3, [pc, #220]	@ (80039b4 <main+0x4a4>)
  usb_lld_init_endpoint(usbp, 0U);
 80038d6:	2100      	movs	r1, #0
 80038d8:	0038      	movs	r0, r7
  usbp->epc[0] = &ep0config;
 80038da:	60fb      	str	r3, [r7, #12]
  usb_lld_init_endpoint(usbp, 0U);
 80038dc:	f7fc fea8 	bl	8000630 <usb_lld_init_endpoint>
 80038e0:	e06a      	b.n	80039b8 <main+0x4a8>
 80038e2:	46c0      	nop			@ (mov r8, r8)
 80038e4:	20001080 	.word	0x20001080
 80038e8:	40020008 	.word	0x40020008
 80038ec:	4002001c 	.word	0x4002001c
 80038f0:	40020030 	.word	0x40020030
 80038f4:	40020044 	.word	0x40020044
 80038f8:	40020058 	.word	0x40020058
 80038fc:	40020000 	.word	0x40020000
 8003900:	e000e100 	.word	0xe000e100
 8003904:	20000f80 	.word	0x20000f80
 8003908:	20000f00 	.word	0x20000f00
 800390c:	40014400 	.word	0x40014400
 8003910:	08003f28 	.word	0x08003f28
 8003914:	20000f20 	.word	0x20000f20
 8003918:	20000964 	.word	0x20000964
 800391c:	20000954 	.word	0x20000954
 8003920:	08000621 	.word	0x08000621
 8003924:	20000e74 	.word	0x20000e74
 8003928:	40004400 	.word	0x40004400
 800392c:	02dc6c00 	.word	0x02dc6c00
 8003930:	40005c00 	.word	0x40005c00
 8003934:	40021000 	.word	0x40021000
 8003938:	40015800 	.word	0x40015800
 800393c:	40014800 	.word	0x40014800
 8003940:	000012bf 	.word	0x000012bf
 8003944:	20001138 	.word	0x20001138
 8003948:	0000ffff 	.word	0x0000ffff
 800394c:	20000e6c 	.word	0x20000e6c
 8003950:	20006000 	.word	0x20006000
 8003954:	20000974 	.word	0x20000974
 8003958:	08000701 	.word	0x08000701
 800395c:	20000990 	.word	0x20000990
 8003960:	08000731 	.word	0x08000731
 8003964:	200010b0 	.word	0x200010b0
 8003968:	08003f7c 	.word	0x08003f7c
 800396c:	e000ed00 	.word	0xe000ed00
 8003970:	ff00ffff 	.word	0xff00ffff
 8003974:	08003f50 	.word	0x08003f50
 8003978:	200010fc 	.word	0x200010fc
 800397c:	20000810 	.word	0x20000810
 8003980:	080006f1 	.word	0x080006f1
 8003984:	080001b9 	.word	0x080001b9
 8003988:	08003cac 	.word	0x08003cac
 800398c:	200009dc 	.word	0x200009dc
 8003990:	08003f90 	.word	0x08003f90
 8003994:	08000581 	.word	0x08000581
 8003998:	0000048c 	.word	0x0000048c
 800399c:	08000991 	.word	0x08000991
 80039a0:	08004010 	.word	0x08004010
 80039a4:	ffff7fff 	.word	0xffff7fff
 80039a8:	00003a98 	.word	0x00003a98
 80039ac:	08004000 	.word	0x08004000
 80039b0:	ffffdfff 	.word	0xffffdfff
 80039b4:	08004090 	.word	0x08004090
    usbp->state = USB_READY;
 80039b8:	2302      	movs	r3, #2
 80039ba:	703b      	strb	r3, [r7, #0]
  __ASM volatile ("cpsie i" : : : "memory");
 80039bc:	b662      	cpsie	i
    chThdSleepMilliseconds(1500);
    usbStart(serusbcfg.usbp, &usbcfg);
    usbConnectBus(serusbcfg.usbp);
 80039be:	3382      	adds	r3, #130	@ 0x82
 80039c0:	58fa      	ldr	r2, [r7, r3]
 80039c2:	2380      	movs	r3, #128	@ 0x80
 80039c4:	6d91      	ldr	r1, [r2, #88]	@ 0x58
 80039c6:	021b      	lsls	r3, r3, #8
 80039c8:	430b      	orrs	r3, r1
    palSetPadMode(GPIOA, GPIOA_PIN0, PAL_MODE_ALTERNATE(2));
 80039ca:	2181      	movs	r1, #129	@ 0x81
 80039cc:	2001      	movs	r0, #1
 80039ce:	6593      	str	r3, [r2, #88]	@ 0x58
 80039d0:	0049      	lsls	r1, r1, #1
 80039d2:	f7fc fee5 	bl	80007a0 <_pal_lld_setgroupmode.constprop.0>
  __ASM volatile ("cpsid i" : : : "memory");
 80039d6:	b672      	cpsid	i

  osalSysLock();
  osalDbgAssert((pwmp->state == PWM_STOP) || (pwmp->state == PWM_READY),
                "invalid state");

  pwmp->config = config;
 80039d8:	4b65      	ldr	r3, [pc, #404]	@ (8003b70 <main+0x660>)
  if (pwmp->state == PWM_STOP) {
 80039da:	7832      	ldrb	r2, [r6, #0]
 80039dc:	6073      	str	r3, [r6, #4]
  pwmp->period = config->period;
 80039de:	2314      	movs	r3, #20
 80039e0:	60b3      	str	r3, [r6, #8]
  pwmp->enabled = 0U;
 80039e2:	2300      	movs	r3, #0
 80039e4:	60f3      	str	r3, [r6, #12]
 80039e6:	2a01      	cmp	r2, #1
 80039e8:	d100      	bne.n	80039ec <main+0x4dc>
 80039ea:	e0a1      	b.n	8003b30 <main+0x620>
    pwmp->tim->CR1    = 0;                  /* Timer disabled.              */
 80039ec:	69f2      	ldr	r2, [r6, #28]
 80039ee:	6013      	str	r3, [r2, #0]
    pwmp->tim->CCR[0] = 0;                  /* Comparator 1 disabled.       */
 80039f0:	6353      	str	r3, [r2, #52]	@ 0x34
    pwmp->tim->CCR[1] = 0;                  /* Comparator 2 disabled.       */
 80039f2:	6393      	str	r3, [r2, #56]	@ 0x38
    pwmp->tim->CCR[2] = 0;                  /* Comparator 3 disabled.       */
 80039f4:	63d3      	str	r3, [r2, #60]	@ 0x3c
    pwmp->tim->CCR[3] = 0;                  /* Comparator 4 disabled.       */
 80039f6:	6413      	str	r3, [r2, #64]	@ 0x40
    if (pwmp->channels > 4) {
 80039f8:	7c31      	ldrb	r1, [r6, #16]
 80039fa:	2904      	cmp	r1, #4
 80039fc:	d82d      	bhi.n	8003a5a <main+0x54a>
    pwmp->tim->CNT  = 0;                    /* Counter reset to zero.       */
 80039fe:	2300      	movs	r3, #0
 8003a00:	6253      	str	r3, [r2, #36]	@ 0x24
  psc = (pwmp->clock / pwmp->config->frequency) - 1;
 8003a02:	6970      	ldr	r0, [r6, #20]
 8003a04:	495b      	ldr	r1, [pc, #364]	@ (8003b74 <main+0x664>)
 8003a06:	f7fc fc83 	bl	8000310 <__udivsi3>
  pwmp->tim->ARR  = pwmp->period - 1;
 8003a0a:	2213      	movs	r2, #19
  pwmp->tim->PSC  = psc;
 8003a0c:	69f3      	ldr	r3, [r6, #28]
  psc = (pwmp->clock / pwmp->config->frequency) - 1;
 8003a0e:	3801      	subs	r0, #1
  pwmp->tim->PSC  = psc;
 8003a10:	6298      	str	r0, [r3, #40]	@ 0x28
  pwmp->tim->ARR  = pwmp->period - 1;
 8003a12:	62da      	str	r2, [r3, #44]	@ 0x2c
  pwmp->tim->CR2  = pwmp->config->cr2;
 8003a14:	3a0b      	subs	r2, #11
 8003a16:	605a      	str	r2, [r3, #4]
  pwmp->tim->CCER  = ccer;
 8003a18:	3a07      	subs	r2, #7
  if (pwmp->has_bdtr) {
 8003a1a:	7e31      	ldrb	r1, [r6, #24]
  pwmp->tim->CCER  = ccer;
 8003a1c:	621a      	str	r2, [r3, #32]
  pwmp->tim->EGR   = STM32_TIM_EGR_UG;      /* Update event.                */
 8003a1e:	615a      	str	r2, [r3, #20]
  pwmp->tim->SR    = 0;                     /* Clear pending IRQs.          */
 8003a20:	2200      	movs	r2, #0
 8003a22:	611a      	str	r2, [r3, #16]
  pwmp->tim->DIER  = pwmp->config->dier &   /* DMA-related DIER settings.   */
 8003a24:	2280      	movs	r2, #128	@ 0x80
 8003a26:	0092      	lsls	r2, r2, #2
 8003a28:	60da      	str	r2, [r3, #12]
  if (pwmp->has_bdtr) {
 8003a2a:	2900      	cmp	r1, #0
 8003a2c:	d002      	beq.n	8003a34 <main+0x524>
    pwmp->tim->BDTR  = pwmp->config->bdtr | STM32_TIM_BDTR_MOE;
 8003a2e:	2280      	movs	r2, #128	@ 0x80
 8003a30:	0212      	lsls	r2, r2, #8
 8003a32:	645a      	str	r2, [r3, #68]	@ 0x44
  pwmp->tim->CR1   = STM32_TIM_CR1_ARPE | STM32_TIM_CR1_URS |
 8003a34:	2285      	movs	r2, #133	@ 0x85
 8003a36:	601a      	str	r2, [r3, #0]
  else {
    pwmp->state = PWM_STOP;
  }
#else
  pwm_lld_start(pwmp);
  pwmp->state = PWM_READY;
 8003a38:	2302      	movs	r3, #2
 8003a3a:	7033      	strb	r3, [r6, #0]
  __ASM volatile ("cpsie i" : : : "memory");
 8003a3c:	b662      	cpsie	i
  __ASM volatile ("cpsid i" : : : "memory");
 8003a3e:	b672      	cpsid	i
    if ((dma.allocated_mask & mask) == 0U) {
 8003a40:	4643      	mov	r3, r8
 8003a42:	681a      	ldr	r2, [r3, #0]
 8003a44:	2301      	movs	r3, #1
 8003a46:	0019      	movs	r1, r3
 8003a48:	4011      	ands	r1, r2
 8003a4a:	4213      	tst	r3, r2
 8003a4c:	d008      	beq.n	8003a60 <main+0x550>
  __ASM volatile ("cpsie i" : : : "memory");
 8003a4e:	b662      	cpsie	i
    dma_stream = dmaStreamAlloc(STM32_DMA_STREAM_ID(DMA_DRIVER, DMA_CHANNEL),
 8003a50:	2200      	movs	r2, #0
 8003a52:	4b49      	ldr	r3, [pc, #292]	@ (8003b78 <main+0x668>)
 8003a54:	601a      	str	r2, [r3, #0]
 8003a56:	68d3      	ldr	r3, [r2, #12]
 8003a58:	deff      	udf	#255	@ 0xff
      pwmp->tim->CCXR[0] = 0;               /* Comparator 5 disabled.       */
 8003a5a:	6593      	str	r3, [r2, #88]	@ 0x58
      pwmp->tim->CCXR[1] = 0;               /* Comparator 6 disabled.       */
 8003a5c:	65d3      	str	r3, [r2, #92]	@ 0x5c
 8003a5e:	e7ce      	b.n	80039fe <main+0x4ee>
      dma.streams[i].func  = func;
 8003a60:	4645      	mov	r5, r8
      dma.allocated_mask  |= mask;
 8003a62:	431a      	orrs	r2, r3
 8003a64:	602a      	str	r2, [r5, #0]
        rccEnableDMA1(true);
 8003a66:	4a45      	ldr	r2, [pc, #276]	@ (8003b7c <main+0x66c>)
      dma.streams[i].param = param;
 8003a68:	60e9      	str	r1, [r5, #12]
        rccEnableDMA1(true);
 8003a6a:	6b91      	ldr	r1, [r2, #56]	@ 0x38
      dma.streams[i].func  = func;
 8003a6c:	4844      	ldr	r0, [pc, #272]	@ (8003b80 <main+0x670>)
        rccEnableDMA1(true);
 8003a6e:	4319      	orrs	r1, r3
      dma.streams[i].func  = func;
 8003a70:	60a8      	str	r0, [r5, #8]
        rccEnableDMA1(true);
 8003a72:	6391      	str	r1, [r2, #56]	@ 0x38
 8003a74:	6c91      	ldr	r1, [r2, #72]	@ 0x48
 8003a76:	4319      	orrs	r1, r3
 8003a78:	6491      	str	r1, [r2, #72]	@ 0x48
        if ((dma.isr_mask & dmastp->cmask) == 0U) {
 8003a7a:	686d      	ldr	r5, [r5, #4]
        rccEnableDMA1(true);
 8003a7c:	6c92      	ldr	r2, [r2, #72]	@ 0x48
        if ((dma.isr_mask & dmastp->cmask) == 0U) {
 8003a7e:	0029      	movs	r1, r5
 8003a80:	4019      	ands	r1, r3
 8003a82:	421d      	tst	r5, r3
 8003a84:	d06f      	beq.n	8003b66 <main+0x656>
        dma.isr_mask |= mask;
 8003a86:	2301      	movs	r3, #1
 8003a88:	4642      	mov	r2, r8
      dmaStreamDisable(dmastp);
 8003a8a:	210f      	movs	r1, #15
        dma.isr_mask |= mask;
 8003a8c:	432b      	orrs	r3, r5
 8003a8e:	6053      	str	r3, [r2, #4]
      dmaStreamDisable(dmastp);
 8003a90:	4b3c      	ldr	r3, [pc, #240]	@ (8003b84 <main+0x674>)
 8003a92:	681a      	ldr	r2, [r3, #0]
 8003a94:	438a      	bics	r2, r1
 8003a96:	601a      	str	r2, [r3, #0]
 8003a98:	4a3b      	ldr	r2, [pc, #236]	@ (8003b88 <main+0x678>)
 8003a9a:	3901      	subs	r1, #1
 8003a9c:	6051      	str	r1, [r2, #4]
      dmastp->channel->CCR = STM32_DMA_CCR_RESET_VALUE;
 8003a9e:	2200      	movs	r2, #0
 8003aa0:	601a      	str	r2, [r3, #0]
 8003aa2:	b662      	cpsie	i
 8003aa4:	4a34      	ldr	r2, [pc, #208]	@ (8003b78 <main+0x668>)
 8003aa6:	4939      	ldr	r1, [pc, #228]	@ (8003b8c <main+0x67c>)

    while (true) {

        chprintf((BaseSequentialStream*)&PORTAB_SDU1, "Hello World!\r\n");

        palClearLine(LINE_LED_GREEN);
 8003aa8:	26a0      	movs	r6, #160	@ 0xa0
 8003aaa:	6011      	str	r1, [r2, #0]
 */
void dmaSetRequestSource(const stm32_dma_stream_t *dmastp, uint32_t per) {

  osalDbgCheck(per < 256U);

  dmastp->mux->CCR = per;
 8003aac:	212c      	movs	r1, #44	@ 0x2c
 8003aae:	2520      	movs	r5, #32
 8003ab0:	4a37      	ldr	r2, [pc, #220]	@ (8003b90 <main+0x680>)
 8003ab2:	4f38      	ldr	r7, [pc, #224]	@ (8003b94 <main+0x684>)
 8003ab4:	6011      	str	r1, [r2, #0]
    dmaStreamSetPeripheral(dma_stream, DMA_PERIPHERAL);
 8003ab6:	4a38      	ldr	r2, [pc, #224]	@ (8003b98 <main+0x688>)
 8003ab8:	05f6      	lsls	r6, r6, #23
 8003aba:	609a      	str	r2, [r3, #8]
        chprintf((BaseSequentialStream*)&PORTAB_SDU1, "Hello World!\r\n");
 8003abc:	0039      	movs	r1, r7
 8003abe:	0020      	movs	r0, r4
 8003ac0:	f7fe f996 	bl	8001df0 <chprintf.constprop.0>
        palClearLine(LINE_LED_GREEN);
 8003ac4:	8375      	strh	r5, [r6, #26]
  __ASM volatile ("cpsid i" : : : "memory");
 8003ac6:	b672      	cpsid	i
 8003ac8:	4934      	ldr	r1, [pc, #208]	@ (8003b9c <main+0x68c>)
 8003aca:	2008      	movs	r0, #8
 8003acc:	f7fd fbd0 	bl	8001270 <chSchGoSleepTimeoutS>
  __ASM volatile ("cpsie i" : : : "memory");
 8003ad0:	b662      	cpsie	i
        chThdSleepMilliseconds(500);
        palSetLine(LINE_LED_GREEN);
 8003ad2:	8335      	strh	r5, [r6, #24]
  __ASM volatile ("cpsid i" : : : "memory");
 8003ad4:	b672      	cpsid	i
 8003ad6:	4931      	ldr	r1, [pc, #196]	@ (8003b9c <main+0x68c>)
 8003ad8:	2008      	movs	r0, #8
 8003ada:	f7fd fbc9 	bl	8001270 <chSchGoSleepTimeoutS>
  __ASM volatile ("cpsie i" : : : "memory");
 8003ade:	b662      	cpsie	i

        chThdSleepMilliseconds(500);

        ee_ws2812b_set_color_rgb(0xFF, 0x00, 0x00);
 8003ae0:	2200      	movs	r2, #0
 8003ae2:	2100      	movs	r1, #0
 8003ae4:	20ff      	movs	r0, #255	@ 0xff
 8003ae6:	f7fc fecb 	bl	8000880 <ee_ws2812b_set_color_rgb.isra.0>
        ee_ws2812b_render();
 8003aea:	f7fe f829 	bl	8001b40 <ee_ws2812b_render.isra.0>
  __ASM volatile ("cpsid i" : : : "memory");
 8003aee:	b672      	cpsid	i
 8003af0:	492a      	ldr	r1, [pc, #168]	@ (8003b9c <main+0x68c>)
 8003af2:	2008      	movs	r0, #8
 8003af4:	f7fd fbbc 	bl	8001270 <chSchGoSleepTimeoutS>
  __ASM volatile ("cpsie i" : : : "memory");
 8003af8:	b662      	cpsie	i
        chThdSleepMilliseconds(500);
        ee_ws2812b_set_color_rgb(0x00, 0xFF, 0x00);
 8003afa:	2200      	movs	r2, #0
 8003afc:	21ff      	movs	r1, #255	@ 0xff
 8003afe:	2000      	movs	r0, #0
 8003b00:	f7fc febe 	bl	8000880 <ee_ws2812b_set_color_rgb.isra.0>
        ee_ws2812b_render();
 8003b04:	f7fe f81c 	bl	8001b40 <ee_ws2812b_render.isra.0>
  __ASM volatile ("cpsid i" : : : "memory");
 8003b08:	b672      	cpsid	i
 8003b0a:	4924      	ldr	r1, [pc, #144]	@ (8003b9c <main+0x68c>)
 8003b0c:	2008      	movs	r0, #8
 8003b0e:	f7fd fbaf 	bl	8001270 <chSchGoSleepTimeoutS>
  __ASM volatile ("cpsie i" : : : "memory");
 8003b12:	b662      	cpsie	i
        chThdSleepMilliseconds(500);
        ee_ws2812b_set_color_rgb(0x00, 0x00, 0xFF);
 8003b14:	22ff      	movs	r2, #255	@ 0xff
 8003b16:	2100      	movs	r1, #0
 8003b18:	2000      	movs	r0, #0
 8003b1a:	f7fc feb1 	bl	8000880 <ee_ws2812b_set_color_rgb.isra.0>
        ee_ws2812b_render();
 8003b1e:	f7fe f80f 	bl	8001b40 <ee_ws2812b_render.isra.0>
  __ASM volatile ("cpsid i" : : : "memory");
 8003b22:	b672      	cpsid	i
 8003b24:	491d      	ldr	r1, [pc, #116]	@ (8003b9c <main+0x68c>)
 8003b26:	2008      	movs	r0, #8
 8003b28:	f7fd fba2 	bl	8001270 <chSchGoSleepTimeoutS>
  __ASM volatile ("cpsie i" : : : "memory");
 8003b2c:	b662      	cpsie	i
    while (true) {
 8003b2e:	e7c5      	b.n	8003abc <main+0x5ac>
      rccEnableTIM16(true);
 8003b30:	2280      	movs	r2, #128	@ 0x80
 8003b32:	4b12      	ldr	r3, [pc, #72]	@ (8003b7c <main+0x66c>)
 8003b34:	0292      	lsls	r2, r2, #10
 8003b36:	6c19      	ldr	r1, [r3, #64]	@ 0x40
 8003b38:	4311      	orrs	r1, r2
 8003b3a:	6419      	str	r1, [r3, #64]	@ 0x40
 8003b3c:	6d19      	ldr	r1, [r3, #80]	@ 0x50
 8003b3e:	4311      	orrs	r1, r2
 8003b40:	6519      	str	r1, [r3, #80]	@ 0x50
 8003b42:	6d19      	ldr	r1, [r3, #80]	@ 0x50
      rccResetTIM16();
 8003b44:	6b19      	ldr	r1, [r3, #48]	@ 0x30
 8003b46:	430a      	orrs	r2, r1
 8003b48:	631a      	str	r2, [r3, #48]	@ 0x30
 8003b4a:	6b1a      	ldr	r2, [r3, #48]	@ 0x30
 8003b4c:	4914      	ldr	r1, [pc, #80]	@ (8003ba0 <main+0x690>)
 8003b4e:	400a      	ands	r2, r1
 8003b50:	631a      	str	r2, [r3, #48]	@ 0x30
 8003b52:	6b1b      	ldr	r3, [r3, #48]	@ 0x30
      pwmp->clock = STM32_TIMCLK2;
 8003b54:	4b13      	ldr	r3, [pc, #76]	@ (8003ba4 <main+0x694>)
    pwmp->tim->CCMR1 = STM32_TIM_CCMR1_OC1M(6) | STM32_TIM_CCMR1_OC1PE |
 8003b56:	4a14      	ldr	r2, [pc, #80]	@ (8003ba8 <main+0x698>)
      pwmp->clock = STM32_TIMCLK2;
 8003b58:	6173      	str	r3, [r6, #20]
    pwmp->tim->CCMR1 = STM32_TIM_CCMR1_OC1M(6) | STM32_TIM_CCMR1_OC1PE |
 8003b5a:	69f3      	ldr	r3, [r6, #28]
 8003b5c:	619a      	str	r2, [r3, #24]
    pwmp->tim->CCMR2 = STM32_TIM_CCMR2_OC3M(6) | STM32_TIM_CCMR2_OC3PE |
 8003b5e:	61da      	str	r2, [r3, #28]
    pwmp->tim->CCMR3 = STM32_TIM_CCMR3_OC5M(6) | STM32_TIM_CCMR3_OC5PE |
 8003b60:	4a12      	ldr	r2, [pc, #72]	@ (8003bac <main+0x69c>)
 8003b62:	655a      	str	r2, [r3, #84]	@ 0x54
 8003b64:	e74d      	b.n	8003a02 <main+0x4f2>
          nvicEnableVector(dmastp->vector, priority);
 8003b66:	2009      	movs	r0, #9
 8003b68:	f7fc fd32 	bl	80005d0 <nvicEnableVector>
 8003b6c:	e78b      	b.n	8003a86 <main+0x576>
 8003b6e:	46c0      	nop			@ (mov r8, r8)
 8003b70:	08003fb8 	.word	0x08003fb8
 8003b74:	00f42400 	.word	0x00f42400
 8003b78:	200009d8 	.word	0x200009d8
 8003b7c:	40021000 	.word	0x40021000
 8003b80:	08000791 	.word	0x08000791
 8003b84:	40020008 	.word	0x40020008
 8003b88:	40020000 	.word	0x40020000
 8003b8c:	080040b4 	.word	0x080040b4
 8003b90:	40020800 	.word	0x40020800
 8003b94:	08003c94 	.word	0x08003c94
 8003b98:	40014434 	.word	0x40014434
 8003b9c:	00001388 	.word	0x00001388
 8003ba0:	fffdffff 	.word	0xfffdffff
 8003ba4:	02dc6c00 	.word	0x02dc6c00
 8003ba8:	00006868 	.word	0x00006868
 8003bac:	01016868 	.word	0x01016868
